---
triple:          'arm64-apple-darwin'
binary-path:     rocksdb_dump
relocations:
  - { offset: 0x34409, size: 0x8, addend: 0x0, symName: __ZNSt3__122__make_exception_guardB8ne180100INS_6vectorIN7rocksdb15CompressionTypeENS_9allocatorIS3_EEE16__destroy_vectorEEENS_28__exception_guard_exceptionsIT_EES9_, symObjAddr: 0x1658, symBinAddr: 0x100002D58, symSize: 0x40 }
  - { offset: 0x3443E, size: 0x8, addend: 0x0, symName: __ZNSt3__119__allocate_at_leastB8ne180100INS_9allocatorIN7rocksdb15CompressionTypeEEEEENS_19__allocation_resultINS_16allocator_traitsIT_E7pointerEEERS7_m, symObjAddr: 0x193C, symBinAddr: 0x10000303C, symSize: 0x40 }
  - { offset: 0x34481, size: 0x8, addend: 0x0, symName: __ZNSt3__13minB8ne180100ImEERKT_S3_S3_, symObjAddr: 0x19E0, symBinAddr: 0x1000030E0, symSize: 0x2C }
  - { offset: 0x346AE, size: 0x8, addend: 0x0, symName: __ZNSt3__13minB8ne180100ImNS_6__lessIvvEEEERKT_S5_S5_T0_, symObjAddr: 0x1A54, symBinAddr: 0x100003154, symSize: 0x54 }
  - { offset: 0x3474D, size: 0x8, addend: 0x0, symName: __ZNSt3__120__throw_length_errorB8ne180100EPKc, symObjAddr: 0x1AF4, symBinAddr: 0x1000031F4, symSize: 0x64 }
  - { offset: 0x34775, size: 0x8, addend: 0x0, symName: __ZNSt3__117__libcpp_allocateB8ne180100Emm, symObjAddr: 0x1C58, symBinAddr: 0x100003358, symSize: 0x60 }
  - { offset: 0x347CF, size: 0x8, addend: 0x0, symName: __ZNSt3__124__is_overaligned_for_newB8ne180100Em, symObjAddr: 0x1CB8, symBinAddr: 0x1000033B8, symSize: 0x1C }
  - { offset: 0x347FD, size: 0x8, addend: 0x0, symName: __ZNSt3__121__libcpp_operator_newB8ne180100IJmSt11align_val_tEEEPvDpT_, symObjAddr: 0x1CD4, symBinAddr: 0x1000033D4, symSize: 0x2C }
  - { offset: 0x3484A, size: 0x8, addend: 0x0, symName: __ZNSt3__121__libcpp_operator_newB8ne180100IJmEEEPvDpT_, symObjAddr: 0x1D00, symBinAddr: 0x100003400, symSize: 0x24 }
  - { offset: 0x34883, size: 0x8, addend: 0x0, symName: __ZNSt3__130__uninitialized_allocator_copyB8ne180100INS_9allocatorIN7rocksdb15CompressionTypeEEEPS3_S5_S5_EET2_RT_T0_T1_S6_, symObjAddr: 0x1DD0, symBinAddr: 0x1000034D0, symSize: 0x80 }
  - { offset: 0x34920, size: 0x8, addend: 0x0, symName: __ZNSt3__114__unwrap_rangeB8ne180100IPN7rocksdb15CompressionTypeES3_EENS_4pairIT0_S5_EET_S7_, symObjAddr: 0x1EC0, symBinAddr: 0x1000035C0, symSize: 0x60 }
  - { offset: 0x3496C, size: 0x8, addend: 0x0, symName: __ZNSt3__135__uninitialized_allocator_copy_implB8ne180100INS_9allocatorIN7rocksdb15CompressionTypeEEES3_S3_S3_TnPNS_9enable_ifIXaaaaaasr31is_trivially_copy_constructibleIT1_EE5valuesr28is_trivially_copy_assignableIS6_EE5valuesr7is_sameIu14__remove_constIT0_Eu14__remove_constIT2_EEE5valuesr38__allocator_has_trivial_copy_constructIT_S6_EE5valueEvE4typeELPv0EEEPS9_RSB_PS7_SI_SG_, symObjAddr: 0x1F20, symBinAddr: 0x100003620, symSize: 0x38 }
  - { offset: 0x349ED, size: 0x8, addend: 0x0, symName: __ZNSt3__113__unwrap_iterB8ne180100IPN7rocksdb15CompressionTypeENS_18__unwrap_iter_implIS3_Lb1EEETnNS_9enable_ifIXsr21is_copy_constructibleIT_EE5valueEiE4typeELi0EEEDTclsrT0_8__unwrapclsr3stdE7declvalIS7_EEEES7_, symObjAddr: 0x1F58, symBinAddr: 0x100003658, symSize: 0x24 }
  - { offset: 0x34A31, size: 0x8, addend: 0x0, symName: __ZNSt3__113__rewrap_iterB8ne180100IPN7rocksdb15CompressionTypeES3_NS_18__unwrap_iter_implIS3_Lb1EEEEET_S6_T0_, symObjAddr: 0x1F7C, symBinAddr: 0x10000367C, symSize: 0x3C }
  - { offset: 0x34A86, size: 0x8, addend: 0x0, symName: __ZNSt3__19make_pairB8ne180100IPN7rocksdb15CompressionTypeES3_EENS_4pairINS_18__unwrap_ref_decayIT_E4typeENS5_IT0_E4typeEEEOS6_OS9_, symObjAddr: 0x1FB8, symBinAddr: 0x1000036B8, symSize: 0x38 }
  - { offset: 0x34BD8, size: 0x8, addend: 0x0, symName: __ZNSt3__14copyB8ne180100IPN7rocksdb15CompressionTypeES3_EET0_T_S5_S4_, symObjAddr: 0x2060, symBinAddr: 0x100003760, symSize: 0x40 }
  - { offset: 0x34C32, size: 0x8, addend: 0x0, symName: __ZNSt3__16__copyB8ne180100INS_17_ClassicAlgPolicyEPN7rocksdb15CompressionTypeES4_S4_EENS_4pairIT0_T2_EES6_T1_S7_, symObjAddr: 0x20A0, symBinAddr: 0x1000037A0, symSize: 0x44 }
  - { offset: 0x34C9E, size: 0x8, addend: 0x0, symName: __ZNSt3__123__dispatch_copy_or_moveB8ne180100INS_17_ClassicAlgPolicyENS_11__copy_loopIS1_EENS_14__copy_trivialEPN7rocksdb15CompressionTypeES7_S7_EENS_4pairIT2_T4_EES9_T3_SA_, symObjAddr: 0x20E4, symBinAddr: 0x1000037E4, symSize: 0x44 }
  - { offset: 0x34D1C, size: 0x8, addend: 0x0, symName: __ZNSt3__121__unwrap_and_dispatchB8ne180100INS_10__overloadINS_11__copy_loopINS_17_ClassicAlgPolicyEEENS_14__copy_trivialEEEPN7rocksdb15CompressionTypeES9_S9_TnNS_9enable_ifIXsr12__can_rewrapIT0_T1_T2_EE5valueEiE4typeELi0EEENS_4pairISB_SD_EESB_SC_SD_, symObjAddr: 0x2128, symBinAddr: 0x100003828, symSize: 0xB4 }
  - { offset: 0x34E68, size: 0x8, addend: 0x0, symName: __ZNSt3__114__rewrap_rangeB8ne180100IPN7rocksdb15CompressionTypeES3_EET_S4_T0_, symObjAddr: 0x2224, symBinAddr: 0x100003924, symSize: 0x2C }
  - { offset: 0x34EB4, size: 0x8, addend: 0x0, symName: __ZNSt3__119__copy_trivial_implB8ne180100IN7rocksdb15CompressionTypeES2_EENS_4pairIPT_PT0_EES5_S5_S7_, symObjAddr: 0x2250, symBinAddr: 0x100003950, symSize: 0x78 }
  - { offset: 0x34F1C, size: 0x8, addend: 0x0, symName: __ZNSt3__119__constexpr_memmoveB8ne180100IN7rocksdb15CompressionTypeES2_TnNS_9enable_ifIXsr23__is_always_bitcastableIT0_T_EE5valueEiE4typeELi0EEEPS5_S8_PS4_NS_15__element_countE, symObjAddr: 0x22C8, symBinAddr: 0x1000039C8, symSize: 0x60 }
  - { offset: 0x34F8A, size: 0x8, addend: 0x0, symName: __ZNSt3__19make_pairB8ne180100IRPN7rocksdb15CompressionTypeES3_EENS_4pairINS_18__unwrap_ref_decayIT_E4typeENS6_IT0_E4typeEEEOS7_OSA_, symObjAddr: 0x2328, symBinAddr: 0x100003A28, symSize: 0x38 }
  - { offset: 0x3502C, size: 0x8, addend: 0x0, symName: __ZNSt3__112__to_addressB8ne180100IN7rocksdb15CompressionTypeEEEPT_S4_, symObjAddr: 0x23F4, symBinAddr: 0x100003AF4, symSize: 0x14 }
  - { offset: 0x35061, size: 0x8, addend: 0x0, symName: __ZNSt3__119__libcpp_deallocateB8ne180100EPvmm, symObjAddr: 0x26F4, symBinAddr: 0x100003DF4, symSize: 0x60 }
  - { offset: 0x350C6, size: 0x8, addend: 0x0, symName: __ZNSt3__127__do_deallocate_handle_sizeB8ne180100IJSt11align_val_tEEEvPvmDpT_, symObjAddr: 0x2754, symBinAddr: 0x100003E54, symSize: 0x30 }
  - { offset: 0x35119, size: 0x8, addend: 0x0, symName: __ZNSt3__127__do_deallocate_handle_sizeB8ne180100IJEEEvPvmDpT_, symObjAddr: 0x2784, symBinAddr: 0x100003E84, symSize: 0x28 }
  - { offset: 0x35157, size: 0x8, addend: 0x0, symName: __ZNSt3__124__libcpp_operator_deleteB8ne180100IJPvSt11align_val_tEEEvDpT_, symObjAddr: 0x27AC, symBinAddr: 0x100003EAC, symSize: 0x2C }
  - { offset: 0x351A0, size: 0x8, addend: 0x0, symName: __ZNSt3__124__libcpp_operator_deleteB8ne180100IJPvEEEvDpT_, symObjAddr: 0x27D8, symBinAddr: 0x100003ED8, symSize: 0x24 }
  - { offset: 0x351D5, size: 0x8, addend: 0x0, symName: __ZNSt3__122__make_exception_guardB8ne180100INS_6vectorIiNS_9allocatorIiEEE16__destroy_vectorEEENS_28__exception_guard_exceptionsIT_EES7_, symObjAddr: 0x2AF0, symBinAddr: 0x1000041F0, symSize: 0x40 }
  - { offset: 0x3520A, size: 0x8, addend: 0x0, symName: __ZNSt3__119__allocate_at_leastB8ne180100INS_9allocatorIiEEEENS_19__allocation_resultINS_16allocator_traitsIT_E7pointerEEERS5_m, symObjAddr: 0x2DD4, symBinAddr: 0x1000044D4, symSize: 0x40 }
  - { offset: 0x3524D, size: 0x8, addend: 0x0, symName: __ZNSt3__130__uninitialized_allocator_copyB8ne180100INS_9allocatorIiEEPiS3_S3_EET2_RT_T0_T1_S4_, symObjAddr: 0x2FB0, symBinAddr: 0x1000046B0, symSize: 0x80 }
  - { offset: 0x352EA, size: 0x8, addend: 0x0, symName: __ZNSt3__114__unwrap_rangeB8ne180100IPiS1_EENS_4pairIT0_S3_EET_S5_, symObjAddr: 0x30A0, symBinAddr: 0x1000047A0, symSize: 0x60 }
  - { offset: 0x35336, size: 0x8, addend: 0x0, symName: __ZNSt3__135__uninitialized_allocator_copy_implB8ne180100INS_9allocatorIiEEiiiTnPNS_9enable_ifIXaaaaaasr31is_trivially_copy_constructibleIT1_EE5valuesr28is_trivially_copy_assignableIS4_EE5valuesr7is_sameIu14__remove_constIT0_Eu14__remove_constIT2_EEE5valuesr38__allocator_has_trivial_copy_constructIT_S4_EE5valueEvE4typeELPv0EEEPS7_RS9_PS5_SG_SE_, symObjAddr: 0x3100, symBinAddr: 0x100004800, symSize: 0x38 }
  - { offset: 0x353B7, size: 0x8, addend: 0x0, symName: __ZNSt3__113__unwrap_iterB8ne180100IPiNS_18__unwrap_iter_implIS1_Lb1EEETnNS_9enable_ifIXsr21is_copy_constructibleIT_EE5valueEiE4typeELi0EEEDTclsrT0_8__unwrapclsr3stdE7declvalIS5_EEEES5_, symObjAddr: 0x3138, symBinAddr: 0x100004838, symSize: 0x24 }
  - { offset: 0x353FB, size: 0x8, addend: 0x0, symName: __ZNSt3__113__rewrap_iterB8ne180100IPiS1_NS_18__unwrap_iter_implIS1_Lb1EEEEET_S4_T0_, symObjAddr: 0x315C, symBinAddr: 0x10000485C, symSize: 0x3C }
  - { offset: 0x35450, size: 0x8, addend: 0x0, symName: __ZNSt3__19make_pairB8ne180100IPiS1_EENS_4pairINS_18__unwrap_ref_decayIT_E4typeENS3_IT0_E4typeEEEOS4_OS7_, symObjAddr: 0x3198, symBinAddr: 0x100004898, symSize: 0x38 }
  - { offset: 0x355A2, size: 0x8, addend: 0x0, symName: __ZNSt3__14copyB8ne180100IPiS1_EET0_T_S3_S2_, symObjAddr: 0x3240, symBinAddr: 0x100004940, symSize: 0x40 }
  - { offset: 0x355FC, size: 0x8, addend: 0x0, symName: __ZNSt3__16__copyB8ne180100INS_17_ClassicAlgPolicyEPiS2_S2_EENS_4pairIT0_T2_EES4_T1_S5_, symObjAddr: 0x3280, symBinAddr: 0x100004980, symSize: 0x44 }
  - { offset: 0x35668, size: 0x8, addend: 0x0, symName: __ZNSt3__123__dispatch_copy_or_moveB8ne180100INS_17_ClassicAlgPolicyENS_11__copy_loopIS1_EENS_14__copy_trivialEPiS5_S5_EENS_4pairIT2_T4_EES7_T3_S8_, symObjAddr: 0x32C4, symBinAddr: 0x1000049C4, symSize: 0x44 }
  - { offset: 0x356E6, size: 0x8, addend: 0x0, symName: __ZNSt3__121__unwrap_and_dispatchB8ne180100INS_10__overloadINS_11__copy_loopINS_17_ClassicAlgPolicyEEENS_14__copy_trivialEEEPiS7_S7_TnNS_9enable_ifIXsr12__can_rewrapIT0_T1_T2_EE5valueEiE4typeELi0EEENS_4pairIS9_SB_EES9_SA_SB_, symObjAddr: 0x3308, symBinAddr: 0x100004A08, symSize: 0xB4 }
  - { offset: 0x35774, size: 0x8, addend: 0x0, symName: __ZNSt3__114__rewrap_rangeB8ne180100IPiS1_EET_S2_T0_, symObjAddr: 0x3404, symBinAddr: 0x100004B04, symSize: 0x2C }
  - { offset: 0x357C0, size: 0x8, addend: 0x0, symName: __ZNSt3__119__copy_trivial_implB8ne180100IiiEENS_4pairIPT_PT0_EES3_S3_S5_, symObjAddr: 0x3430, symBinAddr: 0x100004B30, symSize: 0x80 }
  - { offset: 0x35828, size: 0x8, addend: 0x0, symName: __ZNSt3__119__constexpr_memmoveB8ne180100IiiTnNS_9enable_ifIXsr23__is_always_bitcastableIT0_T_EE5valueEiE4typeELi0EEEPS3_S6_PS2_NS_15__element_countE, symObjAddr: 0x34B0, symBinAddr: 0x100004BB0, symSize: 0x60 }
  - { offset: 0x35896, size: 0x8, addend: 0x0, symName: __ZNSt3__19make_pairB8ne180100IRPiS1_EENS_4pairINS_18__unwrap_ref_decayIT_E4typeENS4_IT0_E4typeEEEOS5_OS8_, symObjAddr: 0x3510, symBinAddr: 0x100004C10, symSize: 0x38 }
  - { offset: 0x35938, size: 0x8, addend: 0x0, symName: __ZNSt3__112__to_addressB8ne180100IiEEPT_S2_, symObjAddr: 0x35DC, symBinAddr: 0x100004CDC, symSize: 0x14 }
  - { offset: 0x3596D, size: 0x8, addend: 0x0, symName: __ZNSt3__122__make_exception_guardB8ne180100INS_6vectorIN7rocksdb18FileTemperatureAgeENS_9allocatorIS3_EEE16__destroy_vectorEEENS_28__exception_guard_exceptionsIT_EES9_, symObjAddr: 0x3C64, symBinAddr: 0x100005364, symSize: 0x40 }
  - { offset: 0x359A2, size: 0x8, addend: 0x0, symName: __ZNSt3__119__allocate_at_leastB8ne180100INS_9allocatorIN7rocksdb18FileTemperatureAgeEEEEENS_19__allocation_resultINS_16allocator_traitsIT_E7pointerEEERS7_m, symObjAddr: 0x3F48, symBinAddr: 0x100005648, symSize: 0x40 }
  - { offset: 0x359E5, size: 0x8, addend: 0x0, symName: __ZNSt3__130__uninitialized_allocator_copyB8ne180100INS_9allocatorIN7rocksdb18FileTemperatureAgeEEEPS3_S5_S5_EET2_RT_T0_T1_S6_, symObjAddr: 0x4124, symBinAddr: 0x100005824, symSize: 0x80 }
  - { offset: 0x35A82, size: 0x8, addend: 0x0, symName: __ZNSt3__114__unwrap_rangeB8ne180100IPN7rocksdb18FileTemperatureAgeES3_EENS_4pairIT0_S5_EET_S7_, symObjAddr: 0x4214, symBinAddr: 0x100005914, symSize: 0x60 }
  - { offset: 0x35ACE, size: 0x8, addend: 0x0, symName: __ZNSt3__135__uninitialized_allocator_copy_implB8ne180100INS_9allocatorIN7rocksdb18FileTemperatureAgeEEES3_S3_S3_TnPNS_9enable_ifIXaaaaaasr31is_trivially_copy_constructibleIT1_EE5valuesr28is_trivially_copy_assignableIS6_EE5valuesr7is_sameIu14__remove_constIT0_Eu14__remove_constIT2_EEE5valuesr38__allocator_has_trivial_copy_constructIT_S6_EE5valueEvE4typeELPv0EEEPS9_RSB_PS7_SI_SG_, symObjAddr: 0x4274, symBinAddr: 0x100005974, symSize: 0x38 }
  - { offset: 0x35B4F, size: 0x8, addend: 0x0, symName: __ZNSt3__113__unwrap_iterB8ne180100IPN7rocksdb18FileTemperatureAgeENS_18__unwrap_iter_implIS3_Lb1EEETnNS_9enable_ifIXsr21is_copy_constructibleIT_EE5valueEiE4typeELi0EEEDTclsrT0_8__unwrapclsr3stdE7declvalIS7_EEEES7_, symObjAddr: 0x42AC, symBinAddr: 0x1000059AC, symSize: 0x24 }
  - { offset: 0x35B93, size: 0x8, addend: 0x0, symName: __ZNSt3__113__rewrap_iterB8ne180100IPN7rocksdb18FileTemperatureAgeES3_NS_18__unwrap_iter_implIS3_Lb1EEEEET_S6_T0_, symObjAddr: 0x42D0, symBinAddr: 0x1000059D0, symSize: 0x3C }
  - { offset: 0x35BE8, size: 0x8, addend: 0x0, symName: __ZNSt3__19make_pairB8ne180100IPN7rocksdb18FileTemperatureAgeES3_EENS_4pairINS_18__unwrap_ref_decayIT_E4typeENS5_IT0_E4typeEEEOS6_OS9_, symObjAddr: 0x430C, symBinAddr: 0x100005A0C, symSize: 0x38 }
  - { offset: 0x35D3A, size: 0x8, addend: 0x0, symName: __ZNSt3__14copyB8ne180100IPN7rocksdb18FileTemperatureAgeES3_EET0_T_S5_S4_, symObjAddr: 0x43B4, symBinAddr: 0x100005AB4, symSize: 0x40 }
  - { offset: 0x35D94, size: 0x8, addend: 0x0, symName: __ZNSt3__16__copyB8ne180100INS_17_ClassicAlgPolicyEPN7rocksdb18FileTemperatureAgeES4_S4_EENS_4pairIT0_T2_EES6_T1_S7_, symObjAddr: 0x43F4, symBinAddr: 0x100005AF4, symSize: 0x44 }
  - { offset: 0x35E00, size: 0x8, addend: 0x0, symName: __ZNSt3__123__dispatch_copy_or_moveB8ne180100INS_17_ClassicAlgPolicyENS_11__copy_loopIS1_EENS_14__copy_trivialEPN7rocksdb18FileTemperatureAgeES7_S7_EENS_4pairIT2_T4_EES9_T3_SA_, symObjAddr: 0x4438, symBinAddr: 0x100005B38, symSize: 0x44 }
  - { offset: 0x35E7E, size: 0x8, addend: 0x0, symName: __ZNSt3__121__unwrap_and_dispatchB8ne180100INS_10__overloadINS_11__copy_loopINS_17_ClassicAlgPolicyEEENS_14__copy_trivialEEEPN7rocksdb18FileTemperatureAgeES9_S9_TnNS_9enable_ifIXsr12__can_rewrapIT0_T1_T2_EE5valueEiE4typeELi0EEENS_4pairISB_SD_EESB_SC_SD_, symObjAddr: 0x447C, symBinAddr: 0x100005B7C, symSize: 0xB4 }
  - { offset: 0x35F0C, size: 0x8, addend: 0x0, symName: __ZNSt3__114__rewrap_rangeB8ne180100IPN7rocksdb18FileTemperatureAgeES3_EET_S4_T0_, symObjAddr: 0x4578, symBinAddr: 0x100005C78, symSize: 0x2C }
  - { offset: 0x35F58, size: 0x8, addend: 0x0, symName: __ZNSt3__119__copy_trivial_implB8ne180100IN7rocksdb18FileTemperatureAgeES2_EENS_4pairIPT_PT0_EES5_S5_S7_, symObjAddr: 0x45A4, symBinAddr: 0x100005CA4, symSize: 0x80 }
  - { offset: 0x35FC0, size: 0x8, addend: 0x0, symName: __ZNSt3__119__constexpr_memmoveB8ne180100IN7rocksdb18FileTemperatureAgeES2_TnNS_9enable_ifIXsr23__is_always_bitcastableIT0_T_EE5valueEiE4typeELi0EEEPS5_S8_PS4_NS_15__element_countE, symObjAddr: 0x4624, symBinAddr: 0x100005D24, symSize: 0x60 }
  - { offset: 0x3602E, size: 0x8, addend: 0x0, symName: __ZNSt3__19make_pairB8ne180100IRPN7rocksdb18FileTemperatureAgeES3_EENS_4pairINS_18__unwrap_ref_decayIT_E4typeENS6_IT0_E4typeEEEOS7_OSA_, symObjAddr: 0x4684, symBinAddr: 0x100005D84, symSize: 0x38 }
  - { offset: 0x360D0, size: 0x8, addend: 0x0, symName: __ZNSt3__112__to_addressB8ne180100IN7rocksdb18FileTemperatureAgeEEEPT_S4_, symObjAddr: 0x4750, symBinAddr: 0x100005E50, symSize: 0x14 }
  - { offset: 0x36105, size: 0x8, addend: 0x0, symName: __ZNSt3__134__libcpp_atomic_refcount_incrementB8ne180100IlEET_RS1_, symObjAddr: 0x4B74, symBinAddr: 0x100006274, symSize: 0x30 }
  - { offset: 0x3613A, size: 0x8, addend: 0x0, symName: __ZNSt3__122__make_exception_guardB8ne180100INS_6vectorINS_10shared_ptrIN7rocksdb31TablePropertiesCollectorFactoryEEENS_9allocatorIS5_EEE16__destroy_vectorEEENS_28__exception_guard_exceptionsIT_EESB_, symObjAddr: 0x4E38, symBinAddr: 0x100006538, symSize: 0x40 }
  - { offset: 0x3616F, size: 0x8, addend: 0x0, symName: __ZNSt3__119__allocate_at_leastB8ne180100INS_9allocatorINS_10shared_ptrIN7rocksdb31TablePropertiesCollectorFactoryEEEEEEENS_19__allocation_resultINS_16allocator_traitsIT_E7pointerEEERS9_m, symObjAddr: 0x511C, symBinAddr: 0x10000681C, symSize: 0x40 }
  - { offset: 0x361B2, size: 0x8, addend: 0x0, symName: __ZNSt3__130__uninitialized_allocator_copyB8ne180100INS_9allocatorINS_10shared_ptrIN7rocksdb31TablePropertiesCollectorFactoryEEEEEPS5_S7_S7_EET2_RT_T0_T1_S8_, symObjAddr: 0x52F8, symBinAddr: 0x1000069F8, symSize: 0x80 }
  - { offset: 0x3624F, size: 0x8, addend: 0x0, symName: __ZNSt3__114__unwrap_rangeB8ne180100IPNS_10shared_ptrIN7rocksdb31TablePropertiesCollectorFactoryEEES5_EENS_4pairIT0_S7_EET_S9_, symObjAddr: 0x53E8, symBinAddr: 0x100006AE8, symSize: 0x60 }
  - { offset: 0x3629B, size: 0x8, addend: 0x0, symName: __ZNSt3__135__uninitialized_allocator_copy_implB8ne180100INS_9allocatorINS_10shared_ptrIN7rocksdb31TablePropertiesCollectorFactoryEEEEEPS5_S7_S7_EET2_RT_T0_T1_S8_, symObjAddr: 0x5448, symBinAddr: 0x100006B48, symSize: 0xF0 }
  - { offset: 0x36339, size: 0x8, addend: 0x0, symName: __ZNSt3__113__unwrap_iterB8ne180100IPNS_10shared_ptrIN7rocksdb31TablePropertiesCollectorFactoryEEENS_18__unwrap_iter_implIS5_Lb1EEETnNS_9enable_ifIXsr21is_copy_constructibleIT_EE5valueEiE4typeELi0EEEDTclsrT0_8__unwrapclsr3stdE7declvalIS9_EEEES9_, symObjAddr: 0x5538, symBinAddr: 0x100006C38, symSize: 0x24 }
  - { offset: 0x3637D, size: 0x8, addend: 0x0, symName: __ZNSt3__113__rewrap_iterB8ne180100IPNS_10shared_ptrIN7rocksdb31TablePropertiesCollectorFactoryEEES5_NS_18__unwrap_iter_implIS5_Lb1EEEEET_S8_T0_, symObjAddr: 0x555C, symBinAddr: 0x100006C5C, symSize: 0x3C }
  - { offset: 0x363D2, size: 0x8, addend: 0x0, symName: __ZNSt3__19make_pairB8ne180100IPNS_10shared_ptrIN7rocksdb31TablePropertiesCollectorFactoryEEES5_EENS_4pairINS_18__unwrap_ref_decayIT_E4typeENS7_IT0_E4typeEEEOS8_OSB_, symObjAddr: 0x5598, symBinAddr: 0x100006C98, symSize: 0x38 }
  - { offset: 0x364F5, size: 0x8, addend: 0x0, symName: __ZNSt3__122__make_exception_guardB8ne180100INS_29_AllocatorDestroyRangeReverseINS_9allocatorINS_10shared_ptrIN7rocksdb31TablePropertiesCollectorFactoryEEEEEPS6_EEEENS_28__exception_guard_exceptionsIT_EESB_, symObjAddr: 0x5640, symBinAddr: 0x100006D40, symSize: 0x4C }
  - { offset: 0x3652B, size: 0x8, addend: 0x0, symName: __ZNSt3__112__to_addressB8ne180100INS_10shared_ptrIN7rocksdb31TablePropertiesCollectorFactoryEEEEEPT_S6_, symObjAddr: 0x5704, symBinAddr: 0x100006E04, symSize: 0x14 }
  - { offset: 0x36560, size: 0x8, addend: 0x0, symName: __ZNSt3__119__allocator_destroyB8ne180100INS_9allocatorINS_10shared_ptrIN7rocksdb31TablePropertiesCollectorFactoryEEEEENS_16reverse_iteratorIPS5_EES9_EEvRT_T0_T1_, symObjAddr: 0x5980, symBinAddr: 0x100007080, symSize: 0x70 }
  - { offset: 0x365C3, size: 0x8, addend: 0x0, symName: __ZNSt3__1neB8ne180100IPNS_10shared_ptrIN7rocksdb31TablePropertiesCollectorFactoryEEES5_EEbRKNS_16reverse_iteratorIT_EERKNS6_IT0_EE, symObjAddr: 0x5A24, symBinAddr: 0x100007124, symSize: 0x44 }
  - { offset: 0x3660F, size: 0x8, addend: 0x0, symName: __ZNSt3__112__to_addressB8ne180100INS_16reverse_iteratorIPNS_10shared_ptrIN7rocksdb31TablePropertiesCollectorFactoryEEEEEvEEu7__decayIDTclsr19__to_address_helperIT_EE6__callclsr3stdE7declvalIRKS8_EEEEESA_, symObjAddr: 0x5A94, symBinAddr: 0x100007194, symSize: 0x24 }
  - { offset: 0x36645, size: 0x8, addend: 0x0, symName: __ZNSt3__134__libcpp_atomic_refcount_decrementB8ne180100IlEET_RS1_, symObjAddr: 0x5C44, symBinAddr: 0x100007344, symSize: 0x30 }
  - { offset: 0x366F6, size: 0x8, addend: 0x0, symName: __ZNSt3__122__make_exception_guardB8ne180100INS_6vectorIN7rocksdb6DbPathENS_9allocatorIS3_EEE16__destroy_vectorEEENS_28__exception_guard_exceptionsIT_EES9_, symObjAddr: 0x6664, symBinAddr: 0x100007D64, symSize: 0x40 }
  - { offset: 0x3672B, size: 0x8, addend: 0x0, symName: __ZNSt3__119__allocate_at_leastB8ne180100INS_9allocatorIN7rocksdb6DbPathEEEEENS_19__allocation_resultINS_16allocator_traitsIT_E7pointerEEERS7_m, symObjAddr: 0x6948, symBinAddr: 0x100008048, symSize: 0x40 }
  - { offset: 0x3676E, size: 0x8, addend: 0x0, symName: __ZNSt3__130__uninitialized_allocator_copyB8ne180100INS_9allocatorIN7rocksdb6DbPathEEEPS3_S5_S5_EET2_RT_T0_T1_S6_, symObjAddr: 0x6B24, symBinAddr: 0x100008224, symSize: 0x80 }
  - { offset: 0x3680B, size: 0x8, addend: 0x0, symName: __ZNSt3__114__unwrap_rangeB8ne180100IPN7rocksdb6DbPathES3_EENS_4pairIT0_S5_EET_S7_, symObjAddr: 0x6C14, symBinAddr: 0x100008314, symSize: 0x60 }
  - { offset: 0x36857, size: 0x8, addend: 0x0, symName: __ZNSt3__135__uninitialized_allocator_copy_implB8ne180100INS_9allocatorIN7rocksdb6DbPathEEEPS3_S5_S5_EET2_RT_T0_T1_S6_, symObjAddr: 0x6C74, symBinAddr: 0x100008374, symSize: 0xF0 }
  - { offset: 0x368F5, size: 0x8, addend: 0x0, symName: __ZNSt3__113__unwrap_iterB8ne180100IPN7rocksdb6DbPathENS_18__unwrap_iter_implIS3_Lb1EEETnNS_9enable_ifIXsr21is_copy_constructibleIT_EE5valueEiE4typeELi0EEEDTclsrT0_8__unwrapclsr3stdE7declvalIS7_EEEES7_, symObjAddr: 0x6D64, symBinAddr: 0x100008464, symSize: 0x24 }
  - { offset: 0x36939, size: 0x8, addend: 0x0, symName: __ZNSt3__113__rewrap_iterB8ne180100IPN7rocksdb6DbPathES3_NS_18__unwrap_iter_implIS3_Lb1EEEEET_S6_T0_, symObjAddr: 0x6D88, symBinAddr: 0x100008488, symSize: 0x3C }
  - { offset: 0x3698E, size: 0x8, addend: 0x0, symName: __ZNSt3__19make_pairB8ne180100IPN7rocksdb6DbPathES3_EENS_4pairINS_18__unwrap_ref_decayIT_E4typeENS5_IT0_E4typeEEEOS6_OS9_, symObjAddr: 0x6DC4, symBinAddr: 0x1000084C4, symSize: 0x38 }
  - { offset: 0x36AB1, size: 0x8, addend: 0x0, symName: __ZNSt3__122__make_exception_guardB8ne180100INS_29_AllocatorDestroyRangeReverseINS_9allocatorIN7rocksdb6DbPathEEEPS4_EEEENS_28__exception_guard_exceptionsIT_EES9_, symObjAddr: 0x6E6C, symBinAddr: 0x10000856C, symSize: 0x4C }
  - { offset: 0x36AE7, size: 0x8, addend: 0x0, symName: __ZNSt3__112__to_addressB8ne180100IN7rocksdb6DbPathEEEPT_S4_, symObjAddr: 0x6F30, symBinAddr: 0x100008630, symSize: 0x14 }
  - { offset: 0x36B1C, size: 0x8, addend: 0x0, symName: __ZNSt3__119__allocator_destroyB8ne180100INS_9allocatorIN7rocksdb6DbPathEEENS_16reverse_iteratorIPS3_EES7_EEvRT_T0_T1_, symObjAddr: 0x7184, symBinAddr: 0x100008884, symSize: 0x70 }
  - { offset: 0x36B7F, size: 0x8, addend: 0x0, symName: __ZNSt3__1neB8ne180100IPN7rocksdb6DbPathES3_EEbRKNS_16reverse_iteratorIT_EERKNS4_IT0_EE, symObjAddr: 0x7228, symBinAddr: 0x100008928, symSize: 0x44 }
  - { offset: 0x36BCB, size: 0x8, addend: 0x0, symName: __ZNSt3__112__to_addressB8ne180100INS_16reverse_iteratorIPN7rocksdb6DbPathEEEvEEu7__decayIDTclsr19__to_address_helperIT_EE6__callclsr3stdE7declvalIRKS6_EEEEES8_, symObjAddr: 0x7298, symBinAddr: 0x100008998, symSize: 0x24 }
  - { offset: 0x36C7D, size: 0x8, addend: 0x0, symName: __ZNSt3__112__to_addressB8ne180100INS_10shared_ptrIN7rocksdb13EventListenerEEEEEPT_S6_, symObjAddr: 0x8224, symBinAddr: 0x100009924, symSize: 0x14 }
  - { offset: 0x36CCF, size: 0x8, addend: 0x0, symName: __ZNSt3__118__constexpr_strlenB8ne180100EPKc, symObjAddr: 0x8CD4, symBinAddr: 0x10000A3D4, symSize: 0x24 }
  - { offset: 0x36CFB, size: 0x8, addend: 0x0, symName: __ZNSt3__112__to_addressB8ne180100INS_12basic_stringIcNS_11char_traitsIcEENS_9allocatorIcEEEEEEPT_S8_, symObjAddr: 0x8FA0, symBinAddr: 0x10000A6A0, symSize: 0x14 }
  - { offset: 0x36D30, size: 0x8, addend: 0x0, symName: __ZNSt3__112__to_addressB8ne180100IPN7rocksdb18ColumnFamilyHandleEEEPT_S5_, symObjAddr: 0x9360, symBinAddr: 0x10000AA60, symSize: 0x14 }
  - { offset: 0x36D65, size: 0x8, addend: 0x0, symName: __ZNSt3__13maxB8ne180100ImEERKT_S3_S3_, symObjAddr: 0x9B90, symBinAddr: 0x10000B290, symSize: 0x2C }
  - { offset: 0x36DA8, size: 0x8, addend: 0x0, symName: __ZNSt3__13maxB8ne180100ImNS_6__lessIvvEEEERKT_S5_S5_T0_, symObjAddr: 0x9C58, symBinAddr: 0x10000B358, symSize: 0x54 }
  - { offset: 0x36E02, size: 0x8, addend: 0x0, symName: __ZNSt3__119__allocate_at_leastB8ne180100INS_9allocatorINS_12basic_stringIcNS_11char_traitsIcEENS1_IcEEEEEEEENS_19__allocation_resultINS_16allocator_traitsIT_E7pointerEEERSA_m, symObjAddr: 0x9DC0, symBinAddr: 0x10000B4C0, symSize: 0x40 }
  - { offset: 0x36E45, size: 0x8, addend: 0x0, symName: __ZNSt3__142__uninitialized_allocator_move_if_noexceptB8ne180100INS_9allocatorINS_12basic_stringIcNS_11char_traitsIcEENS1_IcEEEEEENS_16reverse_iteratorIPS6_EESA_SA_EET2_RT_T0_T1_SB_, symObjAddr: 0x9F74, symBinAddr: 0x10000B674, symSize: 0x12C }
  - { offset: 0x36EE5, size: 0x8, addend: 0x0, symName: __ZNSt3__14swapB8ne180100IPNS_12basic_stringIcNS_11char_traitsIcEENS_9allocatorIcEEEEEENS_9enable_ifIXaasr21is_move_constructibleIT_EE5valuesr18is_move_assignableIS9_EE5valueEvE4typeERS9_SC_, symObjAddr: 0xA0EC, symBinAddr: 0x10000B7EC, symSize: 0x3C }
  - { offset: 0x36F36, size: 0x8, addend: 0x0, symName: __ZNSt3__122__make_exception_guardB8ne180100INS_29_AllocatorDestroyRangeReverseINS_9allocatorINS_12basic_stringIcNS_11char_traitsIcEENS2_IcEEEEEENS_16reverse_iteratorIPS7_EEEEEENS_28__exception_guard_exceptionsIT_EESE_, symObjAddr: 0xA13C, symBinAddr: 0x10000B83C, symSize: 0x4C }
  - { offset: 0x36F6C, size: 0x8, addend: 0x0, symName: __ZNSt3__1neB8ne180100IPNS_12basic_stringIcNS_11char_traitsIcEENS_9allocatorIcEEEES7_EEbRKNS_16reverse_iteratorIT_EERKNS8_IT0_EE, symObjAddr: 0xA1CC, symBinAddr: 0x10000B8CC, symSize: 0x44 }
  - { offset: 0x36FB8, size: 0x8, addend: 0x0, symName: __ZNSt3__112__to_addressB8ne180100INS_16reverse_iteratorIPNS_12basic_stringIcNS_11char_traitsIcEENS_9allocatorIcEEEEEEvEEu7__decayIDTclsr19__to_address_helperIT_EE6__callclsr3stdE7declvalIRKSA_EEEEESC_, symObjAddr: 0xA244, symBinAddr: 0x10000B944, symSize: 0x24 }
  - { offset: 0x37017, size: 0x8, addend: 0x0, symName: __ZNSt3__119__allocator_destroyB8ne180100INS_9allocatorINS_12basic_stringIcNS_11char_traitsIcEENS1_IcEEEEEENS_16reverse_iteratorINS8_IPS6_EEEESB_EEvRT_T0_T1_, symObjAddr: 0xA7C4, symBinAddr: 0x10000BEC4, symSize: 0x70 }
  - { offset: 0x3707C, size: 0x8, addend: 0x0, symName: __ZNSt3__1neB8ne180100INS_16reverse_iteratorIPNS_12basic_stringIcNS_11char_traitsIcEENS_9allocatorIcEEEEEES9_EEbRKNS1_IT_EERKNS1_IT0_EE, symObjAddr: 0xA870, symBinAddr: 0x10000BF70, symSize: 0x5C }
  - { offset: 0x370C8, size: 0x8, addend: 0x0, symName: __ZNSt3__112__to_addressB8ne180100INS_16reverse_iteratorINS1_IPNS_12basic_stringIcNS_11char_traitsIcEENS_9allocatorIcEEEEEEEEvEEu7__decayIDTclsr19__to_address_helperIT_EE6__callclsr3stdE7declvalIRKSB_EEEEESD_, symObjAddr: 0xA8CC, symBinAddr: 0x10000BFCC, symSize: 0x24 }
  - { offset: 0x37127, size: 0x8, addend: 0x0, symName: __ZNSt3__112__to_addressB8ne180100IN7rocksdb22ColumnFamilyDescriptorEEEPT_S4_, symObjAddr: 0xB198, symBinAddr: 0x10000C898, symSize: 0x14 }
  - { offset: 0x3715C, size: 0x8, addend: 0x0, symName: __ZNSt3__119__allocate_at_leastB8ne180100INS_9allocatorIN7rocksdb22ColumnFamilyDescriptorEEEEENS_19__allocation_resultINS_16allocator_traitsIT_E7pointerEEERS7_m, symObjAddr: 0xC63C, symBinAddr: 0x10000DD3C, symSize: 0x40 }
  - { offset: 0x3719F, size: 0x8, addend: 0x0, symName: __ZNSt3__142__uninitialized_allocator_move_if_noexceptB8ne180100INS_9allocatorIN7rocksdb22ColumnFamilyDescriptorEEENS_16reverse_iteratorIPS3_EES7_S7_EET2_RT_T0_T1_S8_, symObjAddr: 0xC7F0, symBinAddr: 0x10000DEF0, symSize: 0x12C }
  - { offset: 0x3723F, size: 0x8, addend: 0x0, symName: __ZNSt3__14swapB8ne180100IPN7rocksdb22ColumnFamilyDescriptorEEENS_9enable_ifIXaasr21is_move_constructibleIT_EE5valuesr18is_move_assignableIS5_EE5valueEvE4typeERS5_S8_, symObjAddr: 0xC968, symBinAddr: 0x10000E068, symSize: 0x3C }
  - { offset: 0x37290, size: 0x8, addend: 0x0, symName: __ZNSt3__122__make_exception_guardB8ne180100INS_29_AllocatorDestroyRangeReverseINS_9allocatorIN7rocksdb22ColumnFamilyDescriptorEEENS_16reverse_iteratorIPS4_EEEEEENS_28__exception_guard_exceptionsIT_EESB_, symObjAddr: 0xC9B8, symBinAddr: 0x10000E0B8, symSize: 0x4C }
  - { offset: 0x372C6, size: 0x8, addend: 0x0, symName: __ZNSt3__1neB8ne180100IPN7rocksdb22ColumnFamilyDescriptorES3_EEbRKNS_16reverse_iteratorIT_EERKNS4_IT0_EE, symObjAddr: 0xCA48, symBinAddr: 0x10000E148, symSize: 0x44 }
  - { offset: 0x37312, size: 0x8, addend: 0x0, symName: __ZNSt3__112__to_addressB8ne180100INS_16reverse_iteratorIPN7rocksdb22ColumnFamilyDescriptorEEEvEEu7__decayIDTclsr19__to_address_helperIT_EE6__callclsr3stdE7declvalIRKS6_EEEEES8_, symObjAddr: 0xCA8C, symBinAddr: 0x10000E18C, symSize: 0x24 }
  - { offset: 0x37371, size: 0x8, addend: 0x0, symName: __ZNSt3__119__allocator_destroyB8ne180100INS_9allocatorIN7rocksdb22ColumnFamilyDescriptorEEENS_16reverse_iteratorINS5_IPS3_EEEES8_EEvRT_T0_T1_, symObjAddr: 0xCD38, symBinAddr: 0x10000E438, symSize: 0x70 }
  - { offset: 0x373D6, size: 0x8, addend: 0x0, symName: __ZNSt3__1neB8ne180100INS_16reverse_iteratorIPN7rocksdb22ColumnFamilyDescriptorEEES5_EEbRKNS1_IT_EERKNS1_IT0_EE, symObjAddr: 0xCDE4, symBinAddr: 0x10000E4E4, symSize: 0x5C }
  - { offset: 0x37422, size: 0x8, addend: 0x0, symName: __ZNSt3__112__to_addressB8ne180100INS_16reverse_iteratorINS1_IPN7rocksdb22ColumnFamilyDescriptorEEEEEvEEu7__decayIDTclsr19__to_address_helperIT_EE6__callclsr3stdE7declvalIRKS7_EEEEES9_, symObjAddr: 0xCE40, symBinAddr: 0x10000E540, symSize: 0x24 }
  - { offset: 0x38E8C, size: 0x8, addend: 0x0, symName: __ZSt28__throw_bad_array_new_lengthB8ne180100v, symObjAddr: 0x1C24, symBinAddr: 0x100003324, symSize: 0x34 }
  - { offset: 0x3CD95, size: 0x8, addend: 0x0, symName: __ZNSt3__16vectorINS_12basic_stringIcNS_11char_traitsIcEENS_9allocatorIcEEEENS4_IS6_EEE26__swap_out_circular_bufferERNS_14__split_bufferIS6_RS7_EE, symObjAddr: 0x99D8, symBinAddr: 0x10000B0D8, symSize: 0x110 }
  - { offset: 0x3CE3A, size: 0x8, addend: 0x0, symName: __ZNSt3__16vectorIN7rocksdb22ColumnFamilyDescriptorENS_9allocatorIS2_EEE26__swap_out_circular_bufferERNS_14__split_bufferIS2_RS4_EE, symObjAddr: 0xC2CC, symBinAddr: 0x10000D9CC, symSize: 0x110 }
  - { offset: 0x3CEE8, size: 0x8, addend: 0x0, symName: _main, symObjAddr: 0x0, symBinAddr: 0x100001700, symSize: 0x4B0 }
  - { offset: 0x3CFAB, size: 0x8, addend: 0x0, symName: __ZNSt3__112basic_stringIcNS_11char_traitsIcEENS_9allocatorIcEEEC1B8ne180100ILi0EEEPKc, symObjAddr: 0x4B0, symBinAddr: 0x100001BB0, symSize: 0x34 }
  - { offset: 0x3CFEA, size: 0x8, addend: 0x0, symName: __ZNSt3__16vectorINS_12basic_stringIcNS_11char_traitsIcEENS_9allocatorIcEEEENS4_IS6_EEEC1B8ne180100Ev, symObjAddr: 0x4E4, symBinAddr: 0x100001BE4, symSize: 0x2C }
  - { offset: 0x3D014, size: 0x8, addend: 0x0, symName: __ZNSt3__16vectorINS_12basic_stringIcNS_11char_traitsIcEENS_9allocatorIcEEEENS4_IS6_EEE9push_backB8ne180100ERKS6_, symObjAddr: 0x510, symBinAddr: 0x100001C10, symSize: 0x8C }
  - { offset: 0x3D05A, size: 0x8, addend: 0x0, symName: __ZNSt3__16vectorINS_12basic_stringIcNS_11char_traitsIcEENS_9allocatorIcEEEENS4_IS6_EEE9push_backB8ne180100EOS6_, symObjAddr: 0x59C, symBinAddr: 0x100001C9C, symSize: 0x8C }
  - { offset: 0x3D0A0, size: 0x8, addend: 0x0, symName: __ZNSt3__16vectorIN7rocksdb22ColumnFamilyDescriptorENS_9allocatorIS2_EEEC1B8ne180100Ev, symObjAddr: 0x628, symBinAddr: 0x100001D28, symSize: 0x2C }
  - { offset: 0x3D0CA, size: 0x8, addend: 0x0, symName: __ZNSt3__16vectorIN7rocksdb22ColumnFamilyDescriptorENS_9allocatorIS2_EEE9push_backB8ne180100EOS2_, symObjAddr: 0x654, symBinAddr: 0x100001D54, symSize: 0x8C }
  - { offset: 0x3D110, size: 0x8, addend: 0x0, symName: __ZN7rocksdb22ColumnFamilyDescriptorC1ERKNSt3__112basic_stringIcNS1_11char_traitsIcEENS1_9allocatorIcEEEERKNS_19ColumnFamilyOptionsE, symObjAddr: 0x6E0, symBinAddr: 0x100001DE0, symSize: 0x3C }
  - { offset: 0x3D156, size: 0x8, addend: 0x0, symName: __ZN7rocksdb22ColumnFamilyDescriptorD1Ev, symObjAddr: 0x71C, symBinAddr: 0x100001E1C, symSize: 0x2C }
  - { offset: 0x3D182, size: 0x8, addend: 0x0, symName: __ZN7rocksdb19ColumnFamilyOptionsD1Ev, symObjAddr: 0x748, symBinAddr: 0x100001E48, symSize: 0x2C }
  - { offset: 0x3D1AE, size: 0x8, addend: 0x0, symName: __ZNSt3__16vectorIPN7rocksdb18ColumnFamilyHandleENS_9allocatorIS3_EEEC1B8ne180100Ev, symObjAddr: 0x774, symBinAddr: 0x100001E74, symSize: 0x2C }
  - { offset: 0x3D1D8, size: 0x8, addend: 0x0, symName: __ZN7rocksdb7OptionsC1Ev, symObjAddr: 0x7A0, symBinAddr: 0x100001EA0, symSize: 0x2C }
  - { offset: 0x3D202, size: 0x8, addend: 0x0, symName: __ZN7rocksdb9DBOptionsD1Ev, symObjAddr: 0x7CC, symBinAddr: 0x100001ECC, symSize: 0x2C }
  - { offset: 0x3D89D, size: 0x8, addend: 0x0, symName: __ZN7rocksdb12BackupEngine4OpenEPNS_3EnvERKNS_19BackupEngineOptionsEPPS0_, symObjAddr: 0x7F8, symBinAddr: 0x100001EF8, symSize: 0x3C }
  - { offset: 0x3D8DF, size: 0x8, addend: 0x0, symName: __ZN7rocksdb19BackupEngineOptionsC1ERKNSt3__112basic_stringIcNS1_11char_traitsIcEENS1_9allocatorIcEEEEPNS_3EnvEbPNS_6LoggerEbbbyyiyiNS0_16ShareFilesNamingE, symObjAddr: 0x834, symBinAddr: 0x100001F34, symSize: 0xD8 }
  - { offset: 0x3D9C1, size: 0x8, addend: 0x0, symName: __ZN7rocksdb6StatusaSEOS0_, symObjAddr: 0x90C, symBinAddr: 0x10000200C, symSize: 0xF4 }
  - { offset: 0x3D9F8, size: 0x8, addend: 0x0, symName: __ZN7rocksdb8IOStatusD1Ev, symObjAddr: 0xA00, symBinAddr: 0x100002100, symSize: 0x2C }
  - { offset: 0x3DA22, size: 0x8, addend: 0x0, symName: __ZN7rocksdb19BackupEngineOptionsD1Ev, symObjAddr: 0xA2C, symBinAddr: 0x10000212C, symSize: 0x2C }
  - { offset: 0x3DA4E, size: 0x8, addend: 0x0, symName: __ZNK7rocksdb6Status2okEv, symObjAddr: 0xA58, symBinAddr: 0x100002158, symSize: 0x38 }
  - { offset: 0x3DA74, size: 0x8, addend: 0x0, symName: __ZN7rocksdb6StatusD1Ev, symObjAddr: 0xA90, symBinAddr: 0x100002190, symSize: 0x2C }
  - { offset: 0x3DA9E, size: 0x8, addend: 0x0, symName: __ZN7rocksdb7OptionsD1Ev, symObjAddr: 0xABC, symBinAddr: 0x1000021BC, symSize: 0x2C }
  - { offset: 0x3DACB, size: 0x8, addend: 0x0, symName: __ZNSt3__16vectorIPN7rocksdb18ColumnFamilyHandleENS_9allocatorIS3_EEED1B8ne180100Ev, symObjAddr: 0xAE8, symBinAddr: 0x1000021E8, symSize: 0x2C }
  - { offset: 0x3DAF5, size: 0x8, addend: 0x0, symName: __ZNSt3__16vectorIN7rocksdb22ColumnFamilyDescriptorENS_9allocatorIS2_EEED1B8ne180100Ev, symObjAddr: 0xB14, symBinAddr: 0x100002214, symSize: 0x2C }
  - { offset: 0x3DB1F, size: 0x8, addend: 0x0, symName: __ZNSt3__16vectorINS_12basic_stringIcNS_11char_traitsIcEENS_9allocatorIcEEEENS4_IS6_EEED1B8ne180100Ev, symObjAddr: 0xB40, symBinAddr: 0x100002240, symSize: 0x2C }
  - { offset: 0x3DB49, size: 0x8, addend: 0x0, symName: __ZN7rocksdb22ColumnFamilyDescriptorC2ERKNSt3__112basic_stringIcNS1_11char_traitsIcEENS1_9allocatorIcEEEERKNS_19ColumnFamilyOptionsE, symObjAddr: 0xB6C, symBinAddr: 0x10000226C, symSize: 0x70 }
  - { offset: 0x3DB8F, size: 0x8, addend: 0x0, symName: __ZN7rocksdb19ColumnFamilyOptionsC1ERKS0_, symObjAddr: 0xBDC, symBinAddr: 0x1000022DC, symSize: 0x34 }
  - { offset: 0x3DBC4, size: 0x8, addend: 0x0, symName: __ZN7rocksdb19ColumnFamilyOptionsC2ERKS0_, symObjAddr: 0xC10, symBinAddr: 0x100002310, symSize: 0x164 }
  - { offset: 0x3DC04, size: 0x8, addend: 0x0, symName: __ZN7rocksdb27AdvancedColumnFamilyOptionsC2ERKS0_, symObjAddr: 0xD74, symBinAddr: 0x100002474, symSize: 0x1DC }
  - { offset: 0x3DC39, size: 0x8, addend: 0x0, symName: __ZNSt3__110shared_ptrIN7rocksdb13MergeOperatorEEC1B8ne180100ERKS3_, symObjAddr: 0xF50, symBinAddr: 0x100002650, symSize: 0x34 }
  - { offset: 0x3DC72, size: 0x8, addend: 0x0, symName: __ZNSt3__110shared_ptrIN7rocksdb23CompactionFilterFactoryEEC1B8ne180100ERKS3_, symObjAddr: 0xF84, symBinAddr: 0x100002684, symSize: 0x34 }
  - { offset: 0x3DCAB, size: 0x8, addend: 0x0, symName: __ZNSt3__110shared_ptrIKN7rocksdb14SliceTransformEEC1B8ne180100ERKS4_, symObjAddr: 0xFB8, symBinAddr: 0x1000026B8, symSize: 0x34 }
  - { offset: 0x3DCE4, size: 0x8, addend: 0x0, symName: __ZNSt3__110shared_ptrIN7rocksdb12TableFactoryEEC1B8ne180100ERKS3_, symObjAddr: 0xFEC, symBinAddr: 0x1000026EC, symSize: 0x34 }
  - { offset: 0x3DD1D, size: 0x8, addend: 0x0, symName: __ZNSt3__16vectorIN7rocksdb6DbPathENS_9allocatorIS2_EEEC1ERKS5_, symObjAddr: 0x1020, symBinAddr: 0x100002720, symSize: 0x34 }
  - { offset: 0x3DD58, size: 0x8, addend: 0x0, symName: __ZNSt3__110shared_ptrIN7rocksdb21ConcurrentTaskLimiterEEC1B8ne180100ERKS3_, symObjAddr: 0x1054, symBinAddr: 0x100002754, symSize: 0x34 }
  - { offset: 0x3DD91, size: 0x8, addend: 0x0, symName: __ZNSt3__110shared_ptrIN7rocksdb21SstPartitionerFactoryEEC1B8ne180100ERKS3_, symObjAddr: 0x1088, symBinAddr: 0x100002788, symSize: 0x34 }
  - { offset: 0x3DDCA, size: 0x8, addend: 0x0, symName: __ZNSt3__110shared_ptrIN7rocksdb12TableFactoryEED1B8ne180100Ev, symObjAddr: 0x10BC, symBinAddr: 0x1000027BC, symSize: 0x2C }
  - { offset: 0x3DDF4, size: 0x8, addend: 0x0, symName: __ZNSt3__110shared_ptrIKN7rocksdb14SliceTransformEED1B8ne180100Ev, symObjAddr: 0x10E8, symBinAddr: 0x1000027E8, symSize: 0x2C }
  - { offset: 0x3DE1E, size: 0x8, addend: 0x0, symName: __ZNSt3__110shared_ptrIN7rocksdb23CompactionFilterFactoryEED1B8ne180100Ev, symObjAddr: 0x1114, symBinAddr: 0x100002814, symSize: 0x2C }
  - { offset: 0x3DE48, size: 0x8, addend: 0x0, symName: __ZNSt3__110shared_ptrIN7rocksdb13MergeOperatorEED1B8ne180100Ev, symObjAddr: 0x1140, symBinAddr: 0x100002840, symSize: 0x2C }
  - { offset: 0x3DE72, size: 0x8, addend: 0x0, symName: __ZN7rocksdb27AdvancedColumnFamilyOptionsD2Ev, symObjAddr: 0x116C, symBinAddr: 0x10000286C, symSize: 0x78 }
  - { offset: 0x3DE9E, size: 0x8, addend: 0x0, symName: __ZNSt3__16vectorIN7rocksdb15CompressionTypeENS_9allocatorIS2_EEEC1ERKS5_, symObjAddr: 0x11E4, symBinAddr: 0x1000028E4, symSize: 0x34 }
  - { offset: 0x3DED9, size: 0x8, addend: 0x0, symName: __ZNSt3__16vectorIiNS_9allocatorIiEEEC1ERKS3_, symObjAddr: 0x1218, symBinAddr: 0x100002918, symSize: 0x34 }
  - { offset: 0x3DF1F, size: 0x8, addend: 0x0, symName: __ZN7rocksdb21CompactionOptionsFIFOC1ERKS0_, symObjAddr: 0x124C, symBinAddr: 0x10000294C, symSize: 0x34 }
  - { offset: 0x3DF54, size: 0x8, addend: 0x0, symName: __ZNSt3__110shared_ptrIN7rocksdb18MemTableRepFactoryEEC1B8ne180100ERKS3_, symObjAddr: 0x1280, symBinAddr: 0x100002980, symSize: 0x34 }
  - { offset: 0x3DF8D, size: 0x8, addend: 0x0, symName: __ZNSt3__16vectorINS_10shared_ptrIN7rocksdb31TablePropertiesCollectorFactoryEEENS_9allocatorIS4_EEEC1ERKS7_, symObjAddr: 0x12B4, symBinAddr: 0x1000029B4, symSize: 0x34 }
  - { offset: 0x3DFC8, size: 0x8, addend: 0x0, symName: __ZNSt3__110shared_ptrIN7rocksdb5CacheEEC1B8ne180100ERKS3_, symObjAddr: 0x12E8, symBinAddr: 0x1000029E8, symSize: 0x34 }
  - { offset: 0x3E001, size: 0x8, addend: 0x0, symName: __ZNSt3__110shared_ptrIN7rocksdb18MemTableRepFactoryEED1B8ne180100Ev, symObjAddr: 0x131C, symBinAddr: 0x100002A1C, symSize: 0x2C }
  - { offset: 0x3E02B, size: 0x8, addend: 0x0, symName: __ZN7rocksdb21CompactionOptionsFIFOD1Ev, symObjAddr: 0x1348, symBinAddr: 0x100002A48, symSize: 0x2C }
  - { offset: 0x3E057, size: 0x8, addend: 0x0, symName: __ZNSt3__16vectorIiNS_9allocatorIiEEED1B8ne180100Ev, symObjAddr: 0x1374, symBinAddr: 0x100002A74, symSize: 0x2C }
  - { offset: 0x3E081, size: 0x8, addend: 0x0, symName: __ZNSt3__16vectorIN7rocksdb15CompressionTypeENS_9allocatorIS2_EEED1B8ne180100Ev, symObjAddr: 0x13A0, symBinAddr: 0x100002AA0, symSize: 0x2C }
  - { offset: 0x3E0AB, size: 0x8, addend: 0x0, symName: __ZNSt3__16vectorIN7rocksdb15CompressionTypeENS_9allocatorIS2_EEEC2ERKS5_, symObjAddr: 0x13CC, symBinAddr: 0x100002ACC, symSize: 0x94 }
  - { offset: 0x3E0F1, size: 0x8, addend: 0x0, symName: __ZNSt3__116allocator_traitsINS_9allocatorIN7rocksdb15CompressionTypeEEEE37select_on_container_copy_constructionB8ne180100IS4_vvEES4_RKS4_, symObjAddr: 0x1460, symBinAddr: 0x100002B60, symSize: 0x10 }
  - { offset: 0x3E120, size: 0x8, addend: 0x0, symName: __ZNKSt3__16vectorIN7rocksdb15CompressionTypeENS_9allocatorIS2_EEE7__allocB8ne180100Ev, symObjAddr: 0x1470, symBinAddr: 0x100002B70, symSize: 0x28 }
  - { offset: 0x3E152, size: 0x8, addend: 0x0, symName: __ZNSt3__117__compressed_pairIPN7rocksdb15CompressionTypeENS_9allocatorIS2_EEEC1B8ne180100IDnS5_EEOT_OT0_, symObjAddr: 0x1498, symBinAddr: 0x100002B98, symSize: 0x3C }
  - { offset: 0x3E1AA, size: 0x8, addend: 0x0, symName: __ZNSt3__16vectorIN7rocksdb15CompressionTypeENS_9allocatorIS2_EEE16__init_with_sizeB8ne180100IPS2_S7_EEvT_T0_m, symObjAddr: 0x14D4, symBinAddr: 0x100002BD4, symSize: 0xB4 }
  - { offset: 0x3E21E, size: 0x8, addend: 0x0, symName: __ZNKSt3__16vectorIN7rocksdb15CompressionTypeENS_9allocatorIS2_EEE4sizeB8ne180100Ev, symObjAddr: 0x1588, symBinAddr: 0x100002C88, symSize: 0x20 }
  - { offset: 0x3E244, size: 0x8, addend: 0x0, symName: __ZNKSt3__117__compressed_pairIPN7rocksdb15CompressionTypeENS_9allocatorIS2_EEE6secondB8ne180100Ev, symObjAddr: 0x15A8, symBinAddr: 0x100002CA8, symSize: 0x24 }
  - { offset: 0x3E26A, size: 0x8, addend: 0x0, symName: __ZNKSt3__122__compressed_pair_elemINS_9allocatorIN7rocksdb15CompressionTypeEEELi1ELb1EE5__getB8ne180100Ev, symObjAddr: 0x15CC, symBinAddr: 0x100002CCC, symSize: 0x14 }
  - { offset: 0x3E290, size: 0x8, addend: 0x0, symName: __ZNSt3__117__compressed_pairIPN7rocksdb15CompressionTypeENS_9allocatorIS2_EEEC2B8ne180100IDnS5_EEOT_OT0_, symObjAddr: 0x15E0, symBinAddr: 0x100002CE0, symSize: 0x44 }
  - { offset: 0x3E2E8, size: 0x8, addend: 0x0, symName: __ZNSt3__122__compressed_pair_elemIPN7rocksdb15CompressionTypeELi0ELb0EEC2B8ne180100IDnvEEOT_, symObjAddr: 0x1624, symBinAddr: 0x100002D24, symSize: 0x1C }
  - { offset: 0x3E32A, size: 0x8, addend: 0x0, symName: __ZNSt3__122__compressed_pair_elemINS_9allocatorIN7rocksdb15CompressionTypeEEELi1ELb1EEC2B8ne180100IS4_vEEOT_, symObjAddr: 0x1640, symBinAddr: 0x100002D40, symSize: 0x18 }
  - { offset: 0x3E36C, size: 0x8, addend: 0x0, symName: __ZNSt3__16vectorIN7rocksdb15CompressionTypeENS_9allocatorIS2_EEE16__destroy_vectorC1B8ne180100ERS5_, symObjAddr: 0x1698, symBinAddr: 0x100002D98, symSize: 0x34 }
  - { offset: 0x3E3A5, size: 0x8, addend: 0x0, symName: __ZNSt3__16vectorIN7rocksdb15CompressionTypeENS_9allocatorIS2_EEE11__vallocateB8ne180100Em, symObjAddr: 0x16CC, symBinAddr: 0x100002DCC, symSize: 0xA8 }
  - { offset: 0x3E3E9, size: 0x8, addend: 0x0, symName: __ZNSt3__16vectorIN7rocksdb15CompressionTypeENS_9allocatorIS2_EEE18__construct_at_endIPS2_S7_EEvT_T0_m, symObjAddr: 0x1774, symBinAddr: 0x100002E74, symSize: 0x8C }
  - { offset: 0x3E45D, size: 0x8, addend: 0x0, symName: __ZNSt3__128__exception_guard_exceptionsINS_6vectorIN7rocksdb15CompressionTypeENS_9allocatorIS3_EEE16__destroy_vectorEE10__completeB8ne180100Ev, symObjAddr: 0x1800, symBinAddr: 0x100002F00, symSize: 0x1C }
  - { offset: 0x3E483, size: 0x8, addend: 0x0, symName: __ZNSt3__128__exception_guard_exceptionsINS_6vectorIN7rocksdb15CompressionTypeENS_9allocatorIS3_EEE16__destroy_vectorEED1B8ne180100Ev, symObjAddr: 0x181C, symBinAddr: 0x100002F1C, symSize: 0x2C }
  - { offset: 0x3E4AD, size: 0x8, addend: 0x0, symName: __ZNSt3__128__exception_guard_exceptionsINS_6vectorIN7rocksdb15CompressionTypeENS_9allocatorIS3_EEE16__destroy_vectorEEC1B8ne180100ES7_, symObjAddr: 0x1848, symBinAddr: 0x100002F48, symSize: 0x34 }
  - { offset: 0x3E4E5, size: 0x8, addend: 0x0, symName: __ZNSt3__128__exception_guard_exceptionsINS_6vectorIN7rocksdb15CompressionTypeENS_9allocatorIS3_EEE16__destroy_vectorEEC2B8ne180100ES7_, symObjAddr: 0x187C, symBinAddr: 0x100002F7C, symSize: 0x24 }
  - { offset: 0x3E51D, size: 0x8, addend: 0x0, symName: __ZNSt3__16vectorIN7rocksdb15CompressionTypeENS_9allocatorIS2_EEE16__destroy_vectorC2B8ne180100ERS5_, symObjAddr: 0x18A0, symBinAddr: 0x100002FA0, symSize: 0x20 }
  - { offset: 0x3E556, size: 0x8, addend: 0x0, symName: __ZNKSt3__16vectorIN7rocksdb15CompressionTypeENS_9allocatorIS2_EEE8max_sizeEv, symObjAddr: 0x18C0, symBinAddr: 0x100002FC0, symSize: 0x60 }
  - { offset: 0x3E57E, size: 0x8, addend: 0x0, symName: __ZNKSt3__16vectorIN7rocksdb15CompressionTypeENS_9allocatorIS2_EEE20__throw_length_errorB8ne180100Ev, symObjAddr: 0x1920, symBinAddr: 0x100003020, symSize: 0x1C }
  - { offset: 0x3E5A4, size: 0x8, addend: 0x0, symName: __ZNSt3__16vectorIN7rocksdb15CompressionTypeENS_9allocatorIS2_EEE7__allocB8ne180100Ev, symObjAddr: 0x197C, symBinAddr: 0x10000307C, symSize: 0x28 }
  - { offset: 0x3E5CA, size: 0x8, addend: 0x0, symName: __ZNSt3__16vectorIN7rocksdb15CompressionTypeENS_9allocatorIS2_EEE9__end_capB8ne180100Ev, symObjAddr: 0x19A4, symBinAddr: 0x1000030A4, symSize: 0x28 }
  - { offset: 0x3E5F0, size: 0x8, addend: 0x0, symName: __ZNKSt3__16vectorIN7rocksdb15CompressionTypeENS_9allocatorIS2_EEE14__annotate_newB8ne180100Em, symObjAddr: 0x19CC, symBinAddr: 0x1000030CC, symSize: 0x14 }
  - { offset: 0x3E625, size: 0x8, addend: 0x0, symName: __ZNSt3__116allocator_traitsINS_9allocatorIN7rocksdb15CompressionTypeEEEE8max_sizeB8ne180100IS4_vEEmRKS4_, symObjAddr: 0x1A0C, symBinAddr: 0x10000310C, symSize: 0x24 }
  - { offset: 0x3E653, size: 0x8, addend: 0x0, symName: __ZNSt3__114numeric_limitsIlE3maxB8ne180100Ev, symObjAddr: 0x1A30, symBinAddr: 0x100003130, symSize: 0x14 }
  - { offset: 0x3E672, size: 0x8, addend: 0x0, symName: __ZNKSt3__16__lessIvvEclB8ne180100ImmEEbRKT_RKT0_, symObjAddr: 0x1AA8, symBinAddr: 0x1000031A8, symSize: 0x30 }
  - { offset: 0x3E6C6, size: 0x8, addend: 0x0, symName: __ZNKSt3__19allocatorIN7rocksdb15CompressionTypeEE8max_sizeB8ne180100Ev, symObjAddr: 0x1AD8, symBinAddr: 0x1000031D8, symSize: 0x14 }
  - { offset: 0x3E6EC, size: 0x8, addend: 0x0, symName: __ZNSt3__123__libcpp_numeric_limitsIlLb1EE3maxB8ne180100Ev, symObjAddr: 0x1AEC, symBinAddr: 0x1000031EC, symSize: 0x8 }
  - { offset: 0x3E700, size: 0x8, addend: 0x0, symName: __ZNSt12length_errorC1B8ne180100EPKc, symObjAddr: 0x1B58, symBinAddr: 0x100003258, symSize: 0x34 }
  - { offset: 0x3E738, size: 0x8, addend: 0x0, symName: __ZNSt12length_errorC2B8ne180100EPKc, symObjAddr: 0x1B8C, symBinAddr: 0x10000328C, symSize: 0x44 }
  - { offset: 0x3E770, size: 0x8, addend: 0x0, symName: __ZNSt3__19allocatorIN7rocksdb15CompressionTypeEE8allocateB8ne180100Em, symObjAddr: 0x1BD0, symBinAddr: 0x1000032D0, symSize: 0x54 }
  - { offset: 0x3E7A4, size: 0x8, addend: 0x0, symName: __ZNSt3__117__compressed_pairIPN7rocksdb15CompressionTypeENS_9allocatorIS2_EEE6secondB8ne180100Ev, symObjAddr: 0x1D24, symBinAddr: 0x100003424, symSize: 0x24 }
  - { offset: 0x3E7CA, size: 0x8, addend: 0x0, symName: __ZNSt3__122__compressed_pair_elemINS_9allocatorIN7rocksdb15CompressionTypeEEELi1ELb1EE5__getB8ne180100Ev, symObjAddr: 0x1D48, symBinAddr: 0x100003448, symSize: 0x14 }
  - { offset: 0x3E7F0, size: 0x8, addend: 0x0, symName: __ZNSt3__117__compressed_pairIPN7rocksdb15CompressionTypeENS_9allocatorIS2_EEE5firstB8ne180100Ev, symObjAddr: 0x1D5C, symBinAddr: 0x10000345C, symSize: 0x24 }
  - { offset: 0x3E816, size: 0x8, addend: 0x0, symName: __ZNSt3__122__compressed_pair_elemIPN7rocksdb15CompressionTypeELi0ELb0EE5__getB8ne180100Ev, symObjAddr: 0x1D80, symBinAddr: 0x100003480, symSize: 0x14 }
  - { offset: 0x3E858, size: 0x8, addend: 0x0, symName: __ZNSt3__16vectorIN7rocksdb15CompressionTypeENS_9allocatorIS2_EEE21_ConstructTransactionC1B8ne180100ERS5_m, symObjAddr: 0x1D94, symBinAddr: 0x100003494, symSize: 0x3C }
  - { offset: 0x3E8A0, size: 0x8, addend: 0x0, symName: __ZNSt3__16vectorIN7rocksdb15CompressionTypeENS_9allocatorIS2_EEE21_ConstructTransactionD1B8ne180100Ev, symObjAddr: 0x1E50, symBinAddr: 0x100003550, symSize: 0x2C }
  - { offset: 0x3E8CA, size: 0x8, addend: 0x0, symName: __ZNSt3__16vectorIN7rocksdb15CompressionTypeENS_9allocatorIS2_EEE21_ConstructTransactionC2B8ne180100ERS5_m, symObjAddr: 0x1E7C, symBinAddr: 0x10000357C, symSize: 0x44 }
  - { offset: 0x3E935, size: 0x8, addend: 0x0, symName: __ZNSt3__14pairIPN7rocksdb15CompressionTypeES3_EC1B8ne180100IS3_S3_TnNS_9enable_ifIXclsr10_CheckArgsE17__enable_implicitIT_T0_EEEiE4typeELi0EEEOS7_OS8_, symObjAddr: 0x1FF0, symBinAddr: 0x1000036F0, symSize: 0x3C }
  - { offset: 0x3E993, size: 0x8, addend: 0x0, symName: __ZNSt3__14pairIPN7rocksdb15CompressionTypeES3_EC2B8ne180100IS3_S3_TnNS_9enable_ifIXclsr10_CheckArgsE17__enable_implicitIT_T0_EEEiE4typeELi0EEEOS7_OS8_, symObjAddr: 0x202C, symBinAddr: 0x10000372C, symSize: 0x34 }
  - { offset: 0x3E9FC, size: 0x8, addend: 0x0, symName: __ZNKSt3__114__copy_trivialclB8ne180100IN7rocksdb15CompressionTypeES3_TnNS_9enable_ifIXsr38__can_lower_copy_assignment_to_memmoveIT_T0_EE5valueEiE4typeELi0EEENS_4pairIPS5_PS6_EESA_SA_SB_, symObjAddr: 0x21DC, symBinAddr: 0x1000038DC, symSize: 0x48 }
  - { offset: 0x3EA64, size: 0x8, addend: 0x0, symName: __ZNSt3__14pairIPN7rocksdb15CompressionTypeES3_EC1B8ne180100IRS3_S3_TnNS_9enable_ifIXclsr10_CheckArgsE17__enable_implicitIT_T0_EEEiE4typeELi0EEEOS8_OS9_, symObjAddr: 0x2360, symBinAddr: 0x100003A60, symSize: 0x3C }
  - { offset: 0x3EAC2, size: 0x8, addend: 0x0, symName: __ZNSt3__14pairIPN7rocksdb15CompressionTypeES3_EC2B8ne180100IRS3_S3_TnNS_9enable_ifIXclsr10_CheckArgsE17__enable_implicitIT_T0_EEEiE4typeELi0EEEOS8_OS9_, symObjAddr: 0x239C, symBinAddr: 0x100003A9C, symSize: 0x34 }
  - { offset: 0x3EB20, size: 0x8, addend: 0x0, symName: __ZNSt3__118__unwrap_iter_implIPN7rocksdb15CompressionTypeELb1EE8__unwrapB8ne180100ES3_, symObjAddr: 0x23D0, symBinAddr: 0x100003AD0, symSize: 0x24 }
  - { offset: 0x3EB43, size: 0x8, addend: 0x0, symName: __ZNSt3__118__unwrap_iter_implIPN7rocksdb15CompressionTypeELb1EE8__rewrapB8ne180100ES3_S3_, symObjAddr: 0x2408, symBinAddr: 0x100003B08, symSize: 0x48 }
  - { offset: 0x3EB74, size: 0x8, addend: 0x0, symName: __ZNSt3__16vectorIN7rocksdb15CompressionTypeENS_9allocatorIS2_EEE21_ConstructTransactionD2B8ne180100Ev, symObjAddr: 0x2450, symBinAddr: 0x100003B50, symSize: 0x20 }
  - { offset: 0x3EB9E, size: 0x8, addend: 0x0, symName: __ZNSt3__128__exception_guard_exceptionsINS_6vectorIN7rocksdb15CompressionTypeENS_9allocatorIS3_EEE16__destroy_vectorEED2B8ne180100Ev, symObjAddr: 0x2470, symBinAddr: 0x100003B70, symSize: 0x50 }
  - { offset: 0x3EBC8, size: 0x8, addend: 0x0, symName: __ZNSt3__16vectorIN7rocksdb15CompressionTypeENS_9allocatorIS2_EEE16__destroy_vectorclB8ne180100Ev, symObjAddr: 0x24C0, symBinAddr: 0x100003BC0, symSize: 0x88 }
  - { offset: 0x3EBEE, size: 0x8, addend: 0x0, symName: __ZNSt3__16vectorIN7rocksdb15CompressionTypeENS_9allocatorIS2_EEE7__clearB8ne180100Ev, symObjAddr: 0x2548, symBinAddr: 0x100003C48, symSize: 0x28 }
  - { offset: 0x3EC14, size: 0x8, addend: 0x0, symName: __ZNKSt3__16vectorIN7rocksdb15CompressionTypeENS_9allocatorIS2_EEE17__annotate_deleteB8ne180100Ev, symObjAddr: 0x2570, symBinAddr: 0x100003C70, symSize: 0x10 }
  - { offset: 0x3EC3A, size: 0x8, addend: 0x0, symName: __ZNSt3__116allocator_traitsINS_9allocatorIN7rocksdb15CompressionTypeEEEE10deallocateB8ne180100ERS4_PS3_m, symObjAddr: 0x2580, symBinAddr: 0x100003C80, symSize: 0x34 }
  - { offset: 0x3EC7C, size: 0x8, addend: 0x0, symName: __ZNKSt3__16vectorIN7rocksdb15CompressionTypeENS_9allocatorIS2_EEE8capacityB8ne180100Ev, symObjAddr: 0x25B4, symBinAddr: 0x100003CB4, symSize: 0x38 }
  - { offset: 0x3ECA2, size: 0x8, addend: 0x0, symName: __ZNSt3__16vectorIN7rocksdb15CompressionTypeENS_9allocatorIS2_EEE22__base_destruct_at_endB8ne180100EPS2_, symObjAddr: 0x25EC, symBinAddr: 0x100003CEC, symSize: 0x88 }
  - { offset: 0x3ECE6, size: 0x8, addend: 0x0, symName: __ZNSt3__116allocator_traitsINS_9allocatorIN7rocksdb15CompressionTypeEEEE7destroyB8ne180100IS3_vEEvRS4_PT_, symObjAddr: 0x2674, symBinAddr: 0x100003D74, symSize: 0x2C }
  - { offset: 0x3ED23, size: 0x8, addend: 0x0, symName: __ZNSt3__19allocatorIN7rocksdb15CompressionTypeEE7destroyB8ne180100EPS2_, symObjAddr: 0x26A0, symBinAddr: 0x100003DA0, symSize: 0x14 }
  - { offset: 0x3ED57, size: 0x8, addend: 0x0, symName: __ZNSt3__19allocatorIN7rocksdb15CompressionTypeEE10deallocateB8ne180100EPS2_m, symObjAddr: 0x26B4, symBinAddr: 0x100003DB4, symSize: 0x40 }
  - { offset: 0x3ED99, size: 0x8, addend: 0x0, symName: __ZNKSt3__16vectorIN7rocksdb15CompressionTypeENS_9allocatorIS2_EEE9__end_capB8ne180100Ev, symObjAddr: 0x27FC, symBinAddr: 0x100003EFC, symSize: 0x28 }
  - { offset: 0x3EDBF, size: 0x8, addend: 0x0, symName: __ZNKSt3__117__compressed_pairIPN7rocksdb15CompressionTypeENS_9allocatorIS2_EEE5firstB8ne180100Ev, symObjAddr: 0x2824, symBinAddr: 0x100003F24, symSize: 0x24 }
  - { offset: 0x3EDE5, size: 0x8, addend: 0x0, symName: __ZNKSt3__122__compressed_pair_elemIPN7rocksdb15CompressionTypeELi0ELb0EE5__getB8ne180100Ev, symObjAddr: 0x2848, symBinAddr: 0x100003F48, symSize: 0x14 }
  - { offset: 0x3EE0B, size: 0x8, addend: 0x0, symName: __ZNSt3__16vectorIiNS_9allocatorIiEEEC2ERKS3_, symObjAddr: 0x285C, symBinAddr: 0x100003F5C, symSize: 0x94 }
  - { offset: 0x3EE51, size: 0x8, addend: 0x0, symName: __ZNSt3__116allocator_traitsINS_9allocatorIiEEE37select_on_container_copy_constructionB8ne180100IS2_vvEES2_RKS2_, symObjAddr: 0x28F0, symBinAddr: 0x100003FF0, symSize: 0x10 }
  - { offset: 0x3EE80, size: 0x8, addend: 0x0, symName: __ZNKSt3__16vectorIiNS_9allocatorIiEEE7__allocB8ne180100Ev, symObjAddr: 0x2900, symBinAddr: 0x100004000, symSize: 0x28 }
  - { offset: 0x3EEAC, size: 0x8, addend: 0x0, symName: __ZNSt3__117__compressed_pairIPiNS_9allocatorIiEEEC1B8ne180100IDnS3_EEOT_OT0_, symObjAddr: 0x2928, symBinAddr: 0x100004028, symSize: 0x3C }
  - { offset: 0x3EF04, size: 0x8, addend: 0x0, symName: __ZNSt3__16vectorIiNS_9allocatorIiEEE16__init_with_sizeB8ne180100IPiS5_EEvT_T0_m, symObjAddr: 0x2964, symBinAddr: 0x100004064, symSize: 0xB4 }
  - { offset: 0x3EF78, size: 0x8, addend: 0x0, symName: __ZNKSt3__16vectorIiNS_9allocatorIiEEE4sizeB8ne180100Ev, symObjAddr: 0x2A18, symBinAddr: 0x100004118, symSize: 0x28 }
  - { offset: 0x3EF9E, size: 0x8, addend: 0x0, symName: __ZNKSt3__117__compressed_pairIPiNS_9allocatorIiEEE6secondB8ne180100Ev, symObjAddr: 0x2A40, symBinAddr: 0x100004140, symSize: 0x24 }
  - { offset: 0x3EFC4, size: 0x8, addend: 0x0, symName: __ZNKSt3__122__compressed_pair_elemINS_9allocatorIiEELi1ELb1EE5__getB8ne180100Ev, symObjAddr: 0x2A64, symBinAddr: 0x100004164, symSize: 0x14 }
  - { offset: 0x3EFEA, size: 0x8, addend: 0x0, symName: __ZNSt3__117__compressed_pairIPiNS_9allocatorIiEEEC2B8ne180100IDnS3_EEOT_OT0_, symObjAddr: 0x2A78, symBinAddr: 0x100004178, symSize: 0x44 }
  - { offset: 0x3F042, size: 0x8, addend: 0x0, symName: __ZNSt3__122__compressed_pair_elemIPiLi0ELb0EEC2B8ne180100IDnvEEOT_, symObjAddr: 0x2ABC, symBinAddr: 0x1000041BC, symSize: 0x1C }
  - { offset: 0x3F084, size: 0x8, addend: 0x0, symName: __ZNSt3__122__compressed_pair_elemINS_9allocatorIiEELi1ELb1EEC2B8ne180100IS2_vEEOT_, symObjAddr: 0x2AD8, symBinAddr: 0x1000041D8, symSize: 0x18 }
  - { offset: 0x3F0C6, size: 0x8, addend: 0x0, symName: __ZNSt3__16vectorIiNS_9allocatorIiEEE16__destroy_vectorC1B8ne180100ERS3_, symObjAddr: 0x2B30, symBinAddr: 0x100004230, symSize: 0x34 }
  - { offset: 0x3F0FF, size: 0x8, addend: 0x0, symName: __ZNSt3__16vectorIiNS_9allocatorIiEEE11__vallocateB8ne180100Em, symObjAddr: 0x2B64, symBinAddr: 0x100004264, symSize: 0xA8 }
  - { offset: 0x3F143, size: 0x8, addend: 0x0, symName: __ZNSt3__16vectorIiNS_9allocatorIiEEE18__construct_at_endIPiS5_EEvT_T0_m, symObjAddr: 0x2C0C, symBinAddr: 0x10000430C, symSize: 0x8C }
  - { offset: 0x3F1B7, size: 0x8, addend: 0x0, symName: __ZNSt3__128__exception_guard_exceptionsINS_6vectorIiNS_9allocatorIiEEE16__destroy_vectorEE10__completeB8ne180100Ev, symObjAddr: 0x2C98, symBinAddr: 0x100004398, symSize: 0x1C }
  - { offset: 0x3F1DD, size: 0x8, addend: 0x0, symName: __ZNSt3__128__exception_guard_exceptionsINS_6vectorIiNS_9allocatorIiEEE16__destroy_vectorEED1B8ne180100Ev, symObjAddr: 0x2CB4, symBinAddr: 0x1000043B4, symSize: 0x2C }
  - { offset: 0x3F207, size: 0x8, addend: 0x0, symName: __ZNSt3__128__exception_guard_exceptionsINS_6vectorIiNS_9allocatorIiEEE16__destroy_vectorEEC1B8ne180100ES5_, symObjAddr: 0x2CE0, symBinAddr: 0x1000043E0, symSize: 0x34 }
  - { offset: 0x3F23F, size: 0x8, addend: 0x0, symName: __ZNSt3__128__exception_guard_exceptionsINS_6vectorIiNS_9allocatorIiEEE16__destroy_vectorEEC2B8ne180100ES5_, symObjAddr: 0x2D14, symBinAddr: 0x100004414, symSize: 0x24 }
  - { offset: 0x3F277, size: 0x8, addend: 0x0, symName: __ZNSt3__16vectorIiNS_9allocatorIiEEE16__destroy_vectorC2B8ne180100ERS3_, symObjAddr: 0x2D38, symBinAddr: 0x100004438, symSize: 0x20 }
  - { offset: 0x3F2B0, size: 0x8, addend: 0x0, symName: __ZNKSt3__16vectorIiNS_9allocatorIiEEE8max_sizeEv, symObjAddr: 0x2D58, symBinAddr: 0x100004458, symSize: 0x60 }
  - { offset: 0x3F2D8, size: 0x8, addend: 0x0, symName: __ZNKSt3__16vectorIiNS_9allocatorIiEEE20__throw_length_errorB8ne180100Ev, symObjAddr: 0x2DB8, symBinAddr: 0x1000044B8, symSize: 0x1C }
  - { offset: 0x3F2FE, size: 0x8, addend: 0x0, symName: __ZNSt3__16vectorIiNS_9allocatorIiEEE7__allocB8ne180100Ev, symObjAddr: 0x2E14, symBinAddr: 0x100004514, symSize: 0x28 }
  - { offset: 0x3F324, size: 0x8, addend: 0x0, symName: __ZNSt3__16vectorIiNS_9allocatorIiEEE9__end_capB8ne180100Ev, symObjAddr: 0x2E3C, symBinAddr: 0x10000453C, symSize: 0x28 }
  - { offset: 0x3F34A, size: 0x8, addend: 0x0, symName: __ZNKSt3__16vectorIiNS_9allocatorIiEEE14__annotate_newB8ne180100Em, symObjAddr: 0x2E64, symBinAddr: 0x100004564, symSize: 0x14 }
  - { offset: 0x3F37F, size: 0x8, addend: 0x0, symName: __ZNSt3__116allocator_traitsINS_9allocatorIiEEE8max_sizeB8ne180100IS2_vEEmRKS2_, symObjAddr: 0x2E78, symBinAddr: 0x100004578, symSize: 0x24 }
  - { offset: 0x3F3AD, size: 0x8, addend: 0x0, symName: __ZNKSt3__19allocatorIiE8max_sizeB8ne180100Ev, symObjAddr: 0x2E9C, symBinAddr: 0x10000459C, symSize: 0x14 }
  - { offset: 0x3F3D3, size: 0x8, addend: 0x0, symName: __ZNSt3__19allocatorIiE8allocateB8ne180100Em, symObjAddr: 0x2EB0, symBinAddr: 0x1000045B0, symSize: 0x54 }
  - { offset: 0x3F407, size: 0x8, addend: 0x0, symName: __ZNSt3__117__compressed_pairIPiNS_9allocatorIiEEE6secondB8ne180100Ev, symObjAddr: 0x2F04, symBinAddr: 0x100004604, symSize: 0x24 }
  - { offset: 0x3F42D, size: 0x8, addend: 0x0, symName: __ZNSt3__122__compressed_pair_elemINS_9allocatorIiEELi1ELb1EE5__getB8ne180100Ev, symObjAddr: 0x2F28, symBinAddr: 0x100004628, symSize: 0x14 }
  - { offset: 0x3F453, size: 0x8, addend: 0x0, symName: __ZNSt3__117__compressed_pairIPiNS_9allocatorIiEEE5firstB8ne180100Ev, symObjAddr: 0x2F3C, symBinAddr: 0x10000463C, symSize: 0x24 }
  - { offset: 0x3F479, size: 0x8, addend: 0x0, symName: __ZNSt3__122__compressed_pair_elemIPiLi0ELb0EE5__getB8ne180100Ev, symObjAddr: 0x2F60, symBinAddr: 0x100004660, symSize: 0x14 }
  - { offset: 0x3F4BB, size: 0x8, addend: 0x0, symName: __ZNSt3__16vectorIiNS_9allocatorIiEEE21_ConstructTransactionC1B8ne180100ERS3_m, symObjAddr: 0x2F74, symBinAddr: 0x100004674, symSize: 0x3C }
  - { offset: 0x3F503, size: 0x8, addend: 0x0, symName: __ZNSt3__16vectorIiNS_9allocatorIiEEE21_ConstructTransactionD1B8ne180100Ev, symObjAddr: 0x3030, symBinAddr: 0x100004730, symSize: 0x2C }
  - { offset: 0x3F52D, size: 0x8, addend: 0x0, symName: __ZNSt3__16vectorIiNS_9allocatorIiEEE21_ConstructTransactionC2B8ne180100ERS3_m, symObjAddr: 0x305C, symBinAddr: 0x10000475C, symSize: 0x44 }
  - { offset: 0x3F598, size: 0x8, addend: 0x0, symName: __ZNSt3__14pairIPiS1_EC1B8ne180100IS1_S1_TnNS_9enable_ifIXclsr10_CheckArgsE17__enable_implicitIT_T0_EEEiE4typeELi0EEEOS5_OS6_, symObjAddr: 0x31D0, symBinAddr: 0x1000048D0, symSize: 0x3C }
  - { offset: 0x3F5F6, size: 0x8, addend: 0x0, symName: __ZNSt3__14pairIPiS1_EC2B8ne180100IS1_S1_TnNS_9enable_ifIXclsr10_CheckArgsE17__enable_implicitIT_T0_EEEiE4typeELi0EEEOS5_OS6_, symObjAddr: 0x320C, symBinAddr: 0x10000490C, symSize: 0x34 }
  - { offset: 0x3F654, size: 0x8, addend: 0x0, symName: __ZNKSt3__114__copy_trivialclB8ne180100IiiTnNS_9enable_ifIXsr38__can_lower_copy_assignment_to_memmoveIT_T0_EE5valueEiE4typeELi0EEENS_4pairIPS3_PS4_EES8_S8_S9_, symObjAddr: 0x33BC, symBinAddr: 0x100004ABC, symSize: 0x48 }
  - { offset: 0x3F6BC, size: 0x8, addend: 0x0, symName: __ZNSt3__14pairIPiS1_EC1B8ne180100IRS1_S1_TnNS_9enable_ifIXclsr10_CheckArgsE17__enable_implicitIT_T0_EEEiE4typeELi0EEEOS6_OS7_, symObjAddr: 0x3548, symBinAddr: 0x100004C48, symSize: 0x3C }
  - { offset: 0x3F71A, size: 0x8, addend: 0x0, symName: __ZNSt3__14pairIPiS1_EC2B8ne180100IRS1_S1_TnNS_9enable_ifIXclsr10_CheckArgsE17__enable_implicitIT_T0_EEEiE4typeELi0EEEOS6_OS7_, symObjAddr: 0x3584, symBinAddr: 0x100004C84, symSize: 0x34 }
  - { offset: 0x3F778, size: 0x8, addend: 0x0, symName: __ZNSt3__118__unwrap_iter_implIPiLb1EE8__unwrapB8ne180100ES1_, symObjAddr: 0x35B8, symBinAddr: 0x100004CB8, symSize: 0x24 }
  - { offset: 0x3F79B, size: 0x8, addend: 0x0, symName: __ZNSt3__118__unwrap_iter_implIPiLb1EE8__rewrapB8ne180100ES1_S1_, symObjAddr: 0x35F0, symBinAddr: 0x100004CF0, symSize: 0x50 }
  - { offset: 0x3F7CC, size: 0x8, addend: 0x0, symName: __ZNSt3__16vectorIiNS_9allocatorIiEEE21_ConstructTransactionD2B8ne180100Ev, symObjAddr: 0x3640, symBinAddr: 0x100004D40, symSize: 0x20 }
  - { offset: 0x3F7F6, size: 0x8, addend: 0x0, symName: __ZNSt3__128__exception_guard_exceptionsINS_6vectorIiNS_9allocatorIiEEE16__destroy_vectorEED2B8ne180100Ev, symObjAddr: 0x3660, symBinAddr: 0x100004D60, symSize: 0x50 }
  - { offset: 0x3F820, size: 0x8, addend: 0x0, symName: __ZNSt3__16vectorIiNS_9allocatorIiEEE16__destroy_vectorclB8ne180100Ev, symObjAddr: 0x36B0, symBinAddr: 0x100004DB0, symSize: 0x88 }
  - { offset: 0x3F846, size: 0x8, addend: 0x0, symName: __ZNSt3__16vectorIiNS_9allocatorIiEEE7__clearB8ne180100Ev, symObjAddr: 0x3738, symBinAddr: 0x100004E38, symSize: 0x28 }
  - { offset: 0x3F86C, size: 0x8, addend: 0x0, symName: __ZNKSt3__16vectorIiNS_9allocatorIiEEE17__annotate_deleteB8ne180100Ev, symObjAddr: 0x3760, symBinAddr: 0x100004E60, symSize: 0x10 }
  - { offset: 0x3F892, size: 0x8, addend: 0x0, symName: __ZNSt3__116allocator_traitsINS_9allocatorIiEEE10deallocateB8ne180100ERS2_Pim, symObjAddr: 0x3770, symBinAddr: 0x100004E70, symSize: 0x34 }
  - { offset: 0x3F8D4, size: 0x8, addend: 0x0, symName: __ZNKSt3__16vectorIiNS_9allocatorIiEEE8capacityB8ne180100Ev, symObjAddr: 0x37A4, symBinAddr: 0x100004EA4, symSize: 0x40 }
  - { offset: 0x3F8FA, size: 0x8, addend: 0x0, symName: __ZNSt3__16vectorIiNS_9allocatorIiEEE22__base_destruct_at_endB8ne180100EPi, symObjAddr: 0x37E4, symBinAddr: 0x100004EE4, symSize: 0x88 }
  - { offset: 0x3F93E, size: 0x8, addend: 0x0, symName: __ZNSt3__116allocator_traitsINS_9allocatorIiEEE7destroyB8ne180100IivEEvRS2_PT_, symObjAddr: 0x386C, symBinAddr: 0x100004F6C, symSize: 0x2C }
  - { offset: 0x3F97B, size: 0x8, addend: 0x0, symName: __ZNSt3__19allocatorIiE7destroyB8ne180100EPi, symObjAddr: 0x3898, symBinAddr: 0x100004F98, symSize: 0x14 }
  - { offset: 0x3F9AF, size: 0x8, addend: 0x0, symName: __ZNSt3__19allocatorIiE10deallocateB8ne180100EPim, symObjAddr: 0x38AC, symBinAddr: 0x100004FAC, symSize: 0x40 }
  - { offset: 0x3F9F1, size: 0x8, addend: 0x0, symName: __ZNKSt3__16vectorIiNS_9allocatorIiEEE9__end_capB8ne180100Ev, symObjAddr: 0x38EC, symBinAddr: 0x100004FEC, symSize: 0x28 }
  - { offset: 0x3FA17, size: 0x8, addend: 0x0, symName: __ZNKSt3__117__compressed_pairIPiNS_9allocatorIiEEE5firstB8ne180100Ev, symObjAddr: 0x3914, symBinAddr: 0x100005014, symSize: 0x24 }
  - { offset: 0x3FA3D, size: 0x8, addend: 0x0, symName: __ZNKSt3__122__compressed_pair_elemIPiLi0ELb0EE5__getB8ne180100Ev, symObjAddr: 0x3938, symBinAddr: 0x100005038, symSize: 0x14 }
  - { offset: 0x3FA63, size: 0x8, addend: 0x0, symName: __ZN7rocksdb21CompactionOptionsFIFOC2ERKS0_, symObjAddr: 0x394C, symBinAddr: 0x10000504C, symSize: 0x50 }
  - { offset: 0x3FA98, size: 0x8, addend: 0x0, symName: __ZNSt3__16vectorIN7rocksdb18FileTemperatureAgeENS_9allocatorIS2_EEEC1ERKS5_, symObjAddr: 0x399C, symBinAddr: 0x10000509C, symSize: 0x34 }
  - { offset: 0x3FAD3, size: 0x8, addend: 0x0, symName: __ZNSt3__16vectorIN7rocksdb18FileTemperatureAgeENS_9allocatorIS2_EEEC2ERKS5_, symObjAddr: 0x39D0, symBinAddr: 0x1000050D0, symSize: 0x94 }
  - { offset: 0x3FB19, size: 0x8, addend: 0x0, symName: __ZNSt3__116allocator_traitsINS_9allocatorIN7rocksdb18FileTemperatureAgeEEEE37select_on_container_copy_constructionB8ne180100IS4_vvEES4_RKS4_, symObjAddr: 0x3A64, symBinAddr: 0x100005164, symSize: 0x10 }
  - { offset: 0x3FB48, size: 0x8, addend: 0x0, symName: __ZNKSt3__16vectorIN7rocksdb18FileTemperatureAgeENS_9allocatorIS2_EEE7__allocB8ne180100Ev, symObjAddr: 0x3A74, symBinAddr: 0x100005174, symSize: 0x28 }
  - { offset: 0x3FB74, size: 0x8, addend: 0x0, symName: __ZNSt3__117__compressed_pairIPN7rocksdb18FileTemperatureAgeENS_9allocatorIS2_EEEC1B8ne180100IDnS5_EEOT_OT0_, symObjAddr: 0x3A9C, symBinAddr: 0x10000519C, symSize: 0x3C }
  - { offset: 0x3FBCC, size: 0x8, addend: 0x0, symName: __ZNSt3__16vectorIN7rocksdb18FileTemperatureAgeENS_9allocatorIS2_EEE16__init_with_sizeB8ne180100IPS2_S7_EEvT_T0_m, symObjAddr: 0x3AD8, symBinAddr: 0x1000051D8, symSize: 0xB4 }
  - { offset: 0x3FC40, size: 0x8, addend: 0x0, symName: __ZNKSt3__16vectorIN7rocksdb18FileTemperatureAgeENS_9allocatorIS2_EEE4sizeB8ne180100Ev, symObjAddr: 0x3B8C, symBinAddr: 0x10000528C, symSize: 0x28 }
  - { offset: 0x3FC66, size: 0x8, addend: 0x0, symName: __ZNKSt3__117__compressed_pairIPN7rocksdb18FileTemperatureAgeENS_9allocatorIS2_EEE6secondB8ne180100Ev, symObjAddr: 0x3BB4, symBinAddr: 0x1000052B4, symSize: 0x24 }
  - { offset: 0x3FC8C, size: 0x8, addend: 0x0, symName: __ZNKSt3__122__compressed_pair_elemINS_9allocatorIN7rocksdb18FileTemperatureAgeEEELi1ELb1EE5__getB8ne180100Ev, symObjAddr: 0x3BD8, symBinAddr: 0x1000052D8, symSize: 0x14 }
  - { offset: 0x3FCB2, size: 0x8, addend: 0x0, symName: __ZNSt3__117__compressed_pairIPN7rocksdb18FileTemperatureAgeENS_9allocatorIS2_EEEC2B8ne180100IDnS5_EEOT_OT0_, symObjAddr: 0x3BEC, symBinAddr: 0x1000052EC, symSize: 0x44 }
  - { offset: 0x3FD0A, size: 0x8, addend: 0x0, symName: __ZNSt3__122__compressed_pair_elemIPN7rocksdb18FileTemperatureAgeELi0ELb0EEC2B8ne180100IDnvEEOT_, symObjAddr: 0x3C30, symBinAddr: 0x100005330, symSize: 0x1C }
  - { offset: 0x3FD4C, size: 0x8, addend: 0x0, symName: __ZNSt3__122__compressed_pair_elemINS_9allocatorIN7rocksdb18FileTemperatureAgeEEELi1ELb1EEC2B8ne180100IS4_vEEOT_, symObjAddr: 0x3C4C, symBinAddr: 0x10000534C, symSize: 0x18 }
  - { offset: 0x3FD8E, size: 0x8, addend: 0x0, symName: __ZNSt3__16vectorIN7rocksdb18FileTemperatureAgeENS_9allocatorIS2_EEE16__destroy_vectorC1B8ne180100ERS5_, symObjAddr: 0x3CA4, symBinAddr: 0x1000053A4, symSize: 0x34 }
  - { offset: 0x3FDC7, size: 0x8, addend: 0x0, symName: __ZNSt3__16vectorIN7rocksdb18FileTemperatureAgeENS_9allocatorIS2_EEE11__vallocateB8ne180100Em, symObjAddr: 0x3CD8, symBinAddr: 0x1000053D8, symSize: 0xA8 }
  - { offset: 0x3FE0B, size: 0x8, addend: 0x0, symName: __ZNSt3__16vectorIN7rocksdb18FileTemperatureAgeENS_9allocatorIS2_EEE18__construct_at_endIPS2_S7_EEvT_T0_m, symObjAddr: 0x3D80, symBinAddr: 0x100005480, symSize: 0x8C }
  - { offset: 0x3FE7F, size: 0x8, addend: 0x0, symName: __ZNSt3__128__exception_guard_exceptionsINS_6vectorIN7rocksdb18FileTemperatureAgeENS_9allocatorIS3_EEE16__destroy_vectorEE10__completeB8ne180100Ev, symObjAddr: 0x3E0C, symBinAddr: 0x10000550C, symSize: 0x1C }
  - { offset: 0x3FEA5, size: 0x8, addend: 0x0, symName: __ZNSt3__128__exception_guard_exceptionsINS_6vectorIN7rocksdb18FileTemperatureAgeENS_9allocatorIS3_EEE16__destroy_vectorEED1B8ne180100Ev, symObjAddr: 0x3E28, symBinAddr: 0x100005528, symSize: 0x2C }
  - { offset: 0x3FECF, size: 0x8, addend: 0x0, symName: __ZNSt3__128__exception_guard_exceptionsINS_6vectorIN7rocksdb18FileTemperatureAgeENS_9allocatorIS3_EEE16__destroy_vectorEEC1B8ne180100ES7_, symObjAddr: 0x3E54, symBinAddr: 0x100005554, symSize: 0x34 }
  - { offset: 0x3FF07, size: 0x8, addend: 0x0, symName: __ZNSt3__128__exception_guard_exceptionsINS_6vectorIN7rocksdb18FileTemperatureAgeENS_9allocatorIS3_EEE16__destroy_vectorEEC2B8ne180100ES7_, symObjAddr: 0x3E88, symBinAddr: 0x100005588, symSize: 0x24 }
  - { offset: 0x3FF3F, size: 0x8, addend: 0x0, symName: __ZNSt3__16vectorIN7rocksdb18FileTemperatureAgeENS_9allocatorIS2_EEE16__destroy_vectorC2B8ne180100ERS5_, symObjAddr: 0x3EAC, symBinAddr: 0x1000055AC, symSize: 0x20 }
  - { offset: 0x3FF78, size: 0x8, addend: 0x0, symName: __ZNKSt3__16vectorIN7rocksdb18FileTemperatureAgeENS_9allocatorIS2_EEE8max_sizeEv, symObjAddr: 0x3ECC, symBinAddr: 0x1000055CC, symSize: 0x60 }
  - { offset: 0x3FFA0, size: 0x8, addend: 0x0, symName: __ZNKSt3__16vectorIN7rocksdb18FileTemperatureAgeENS_9allocatorIS2_EEE20__throw_length_errorB8ne180100Ev, symObjAddr: 0x3F2C, symBinAddr: 0x10000562C, symSize: 0x1C }
  - { offset: 0x3FFC6, size: 0x8, addend: 0x0, symName: __ZNSt3__16vectorIN7rocksdb18FileTemperatureAgeENS_9allocatorIS2_EEE7__allocB8ne180100Ev, symObjAddr: 0x3F88, symBinAddr: 0x100005688, symSize: 0x28 }
  - { offset: 0x3FFEC, size: 0x8, addend: 0x0, symName: __ZNSt3__16vectorIN7rocksdb18FileTemperatureAgeENS_9allocatorIS2_EEE9__end_capB8ne180100Ev, symObjAddr: 0x3FB0, symBinAddr: 0x1000056B0, symSize: 0x28 }
  - { offset: 0x40012, size: 0x8, addend: 0x0, symName: __ZNKSt3__16vectorIN7rocksdb18FileTemperatureAgeENS_9allocatorIS2_EEE14__annotate_newB8ne180100Em, symObjAddr: 0x3FD8, symBinAddr: 0x1000056D8, symSize: 0x14 }
  - { offset: 0x40047, size: 0x8, addend: 0x0, symName: __ZNSt3__116allocator_traitsINS_9allocatorIN7rocksdb18FileTemperatureAgeEEEE8max_sizeB8ne180100IS4_vEEmRKS4_, symObjAddr: 0x3FEC, symBinAddr: 0x1000056EC, symSize: 0x24 }
  - { offset: 0x40075, size: 0x8, addend: 0x0, symName: __ZNKSt3__19allocatorIN7rocksdb18FileTemperatureAgeEE8max_sizeB8ne180100Ev, symObjAddr: 0x4010, symBinAddr: 0x100005710, symSize: 0x14 }
  - { offset: 0x4009B, size: 0x8, addend: 0x0, symName: __ZNSt3__19allocatorIN7rocksdb18FileTemperatureAgeEE8allocateB8ne180100Em, symObjAddr: 0x4024, symBinAddr: 0x100005724, symSize: 0x54 }
  - { offset: 0x400CF, size: 0x8, addend: 0x0, symName: __ZNSt3__117__compressed_pairIPN7rocksdb18FileTemperatureAgeENS_9allocatorIS2_EEE6secondB8ne180100Ev, symObjAddr: 0x4078, symBinAddr: 0x100005778, symSize: 0x24 }
  - { offset: 0x400F5, size: 0x8, addend: 0x0, symName: __ZNSt3__122__compressed_pair_elemINS_9allocatorIN7rocksdb18FileTemperatureAgeEEELi1ELb1EE5__getB8ne180100Ev, symObjAddr: 0x409C, symBinAddr: 0x10000579C, symSize: 0x14 }
  - { offset: 0x4011B, size: 0x8, addend: 0x0, symName: __ZNSt3__117__compressed_pairIPN7rocksdb18FileTemperatureAgeENS_9allocatorIS2_EEE5firstB8ne180100Ev, symObjAddr: 0x40B0, symBinAddr: 0x1000057B0, symSize: 0x24 }
  - { offset: 0x40141, size: 0x8, addend: 0x0, symName: __ZNSt3__122__compressed_pair_elemIPN7rocksdb18FileTemperatureAgeELi0ELb0EE5__getB8ne180100Ev, symObjAddr: 0x40D4, symBinAddr: 0x1000057D4, symSize: 0x14 }
  - { offset: 0x40183, size: 0x8, addend: 0x0, symName: __ZNSt3__16vectorIN7rocksdb18FileTemperatureAgeENS_9allocatorIS2_EEE21_ConstructTransactionC1B8ne180100ERS5_m, symObjAddr: 0x40E8, symBinAddr: 0x1000057E8, symSize: 0x3C }
  - { offset: 0x401CB, size: 0x8, addend: 0x0, symName: __ZNSt3__16vectorIN7rocksdb18FileTemperatureAgeENS_9allocatorIS2_EEE21_ConstructTransactionD1B8ne180100Ev, symObjAddr: 0x41A4, symBinAddr: 0x1000058A4, symSize: 0x2C }
  - { offset: 0x401F5, size: 0x8, addend: 0x0, symName: __ZNSt3__16vectorIN7rocksdb18FileTemperatureAgeENS_9allocatorIS2_EEE21_ConstructTransactionC2B8ne180100ERS5_m, symObjAddr: 0x41D0, symBinAddr: 0x1000058D0, symSize: 0x44 }
  - { offset: 0x40260, size: 0x8, addend: 0x0, symName: __ZNSt3__14pairIPN7rocksdb18FileTemperatureAgeES3_EC1B8ne180100IS3_S3_TnNS_9enable_ifIXclsr10_CheckArgsE17__enable_implicitIT_T0_EEEiE4typeELi0EEEOS7_OS8_, symObjAddr: 0x4344, symBinAddr: 0x100005A44, symSize: 0x3C }
  - { offset: 0x402BE, size: 0x8, addend: 0x0, symName: __ZNSt3__14pairIPN7rocksdb18FileTemperatureAgeES3_EC2B8ne180100IS3_S3_TnNS_9enable_ifIXclsr10_CheckArgsE17__enable_implicitIT_T0_EEEiE4typeELi0EEEOS7_OS8_, symObjAddr: 0x4380, symBinAddr: 0x100005A80, symSize: 0x34 }
  - { offset: 0x4031C, size: 0x8, addend: 0x0, symName: __ZNKSt3__114__copy_trivialclB8ne180100IN7rocksdb18FileTemperatureAgeES3_TnNS_9enable_ifIXsr38__can_lower_copy_assignment_to_memmoveIT_T0_EE5valueEiE4typeELi0EEENS_4pairIPS5_PS6_EESA_SA_SB_, symObjAddr: 0x4530, symBinAddr: 0x100005C30, symSize: 0x48 }
  - { offset: 0x40384, size: 0x8, addend: 0x0, symName: __ZNSt3__14pairIPN7rocksdb18FileTemperatureAgeES3_EC1B8ne180100IRS3_S3_TnNS_9enable_ifIXclsr10_CheckArgsE17__enable_implicitIT_T0_EEEiE4typeELi0EEEOS8_OS9_, symObjAddr: 0x46BC, symBinAddr: 0x100005DBC, symSize: 0x3C }
  - { offset: 0x403E2, size: 0x8, addend: 0x0, symName: __ZNSt3__14pairIPN7rocksdb18FileTemperatureAgeES3_EC2B8ne180100IRS3_S3_TnNS_9enable_ifIXclsr10_CheckArgsE17__enable_implicitIT_T0_EEEiE4typeELi0EEEOS8_OS9_, symObjAddr: 0x46F8, symBinAddr: 0x100005DF8, symSize: 0x34 }
  - { offset: 0x40440, size: 0x8, addend: 0x0, symName: __ZNSt3__118__unwrap_iter_implIPN7rocksdb18FileTemperatureAgeELb1EE8__unwrapB8ne180100ES3_, symObjAddr: 0x472C, symBinAddr: 0x100005E2C, symSize: 0x24 }
  - { offset: 0x40463, size: 0x8, addend: 0x0, symName: __ZNSt3__118__unwrap_iter_implIPN7rocksdb18FileTemperatureAgeELb1EE8__rewrapB8ne180100ES3_S3_, symObjAddr: 0x4764, symBinAddr: 0x100005E64, symSize: 0x50 }
  - { offset: 0x40494, size: 0x8, addend: 0x0, symName: __ZNSt3__16vectorIN7rocksdb18FileTemperatureAgeENS_9allocatorIS2_EEE21_ConstructTransactionD2B8ne180100Ev, symObjAddr: 0x47B4, symBinAddr: 0x100005EB4, symSize: 0x20 }
  - { offset: 0x404BE, size: 0x8, addend: 0x0, symName: __ZNSt3__128__exception_guard_exceptionsINS_6vectorIN7rocksdb18FileTemperatureAgeENS_9allocatorIS3_EEE16__destroy_vectorEED2B8ne180100Ev, symObjAddr: 0x47D4, symBinAddr: 0x100005ED4, symSize: 0x50 }
  - { offset: 0x404E8, size: 0x8, addend: 0x0, symName: __ZNSt3__16vectorIN7rocksdb18FileTemperatureAgeENS_9allocatorIS2_EEE16__destroy_vectorclB8ne180100Ev, symObjAddr: 0x4824, symBinAddr: 0x100005F24, symSize: 0x88 }
  - { offset: 0x4050E, size: 0x8, addend: 0x0, symName: __ZNSt3__16vectorIN7rocksdb18FileTemperatureAgeENS_9allocatorIS2_EEE7__clearB8ne180100Ev, symObjAddr: 0x48AC, symBinAddr: 0x100005FAC, symSize: 0x28 }
  - { offset: 0x40534, size: 0x8, addend: 0x0, symName: __ZNKSt3__16vectorIN7rocksdb18FileTemperatureAgeENS_9allocatorIS2_EEE17__annotate_deleteB8ne180100Ev, symObjAddr: 0x48D4, symBinAddr: 0x100005FD4, symSize: 0x10 }
  - { offset: 0x4055A, size: 0x8, addend: 0x0, symName: __ZNSt3__116allocator_traitsINS_9allocatorIN7rocksdb18FileTemperatureAgeEEEE10deallocateB8ne180100ERS4_PS3_m, symObjAddr: 0x48E4, symBinAddr: 0x100005FE4, symSize: 0x34 }
  - { offset: 0x4059C, size: 0x8, addend: 0x0, symName: __ZNKSt3__16vectorIN7rocksdb18FileTemperatureAgeENS_9allocatorIS2_EEE8capacityB8ne180100Ev, symObjAddr: 0x4918, symBinAddr: 0x100006018, symSize: 0x40 }
  - { offset: 0x405C2, size: 0x8, addend: 0x0, symName: __ZNSt3__16vectorIN7rocksdb18FileTemperatureAgeENS_9allocatorIS2_EEE22__base_destruct_at_endB8ne180100EPS2_, symObjAddr: 0x4958, symBinAddr: 0x100006058, symSize: 0x88 }
  - { offset: 0x40606, size: 0x8, addend: 0x0, symName: __ZNSt3__116allocator_traitsINS_9allocatorIN7rocksdb18FileTemperatureAgeEEEE7destroyB8ne180100IS3_vEEvRS4_PT_, symObjAddr: 0x49E0, symBinAddr: 0x1000060E0, symSize: 0x2C }
  - { offset: 0x40643, size: 0x8, addend: 0x0, symName: __ZNSt3__19allocatorIN7rocksdb18FileTemperatureAgeEE7destroyB8ne180100EPS2_, symObjAddr: 0x4A0C, symBinAddr: 0x10000610C, symSize: 0x14 }
  - { offset: 0x40677, size: 0x8, addend: 0x0, symName: __ZNSt3__19allocatorIN7rocksdb18FileTemperatureAgeEE10deallocateB8ne180100EPS2_m, symObjAddr: 0x4A20, symBinAddr: 0x100006120, symSize: 0x40 }
  - { offset: 0x406B9, size: 0x8, addend: 0x0, symName: __ZNKSt3__16vectorIN7rocksdb18FileTemperatureAgeENS_9allocatorIS2_EEE9__end_capB8ne180100Ev, symObjAddr: 0x4A60, symBinAddr: 0x100006160, symSize: 0x28 }
  - { offset: 0x406DF, size: 0x8, addend: 0x0, symName: __ZNKSt3__117__compressed_pairIPN7rocksdb18FileTemperatureAgeENS_9allocatorIS2_EEE5firstB8ne180100Ev, symObjAddr: 0x4A88, symBinAddr: 0x100006188, symSize: 0x24 }
  - { offset: 0x40705, size: 0x8, addend: 0x0, symName: __ZNKSt3__122__compressed_pair_elemIPN7rocksdb18FileTemperatureAgeELi0ELb0EE5__getB8ne180100Ev, symObjAddr: 0x4AAC, symBinAddr: 0x1000061AC, symSize: 0x14 }
  - { offset: 0x4072B, size: 0x8, addend: 0x0, symName: __ZNSt3__110shared_ptrIN7rocksdb18MemTableRepFactoryEEC2B8ne180100ERKS3_, symObjAddr: 0x4AC0, symBinAddr: 0x1000061C0, symSize: 0x68 }
  - { offset: 0x40764, size: 0x8, addend: 0x0, symName: __ZNSt3__119__shared_weak_count12__add_sharedB8ne180100Ev, symObjAddr: 0x4B28, symBinAddr: 0x100006228, symSize: 0x24 }
  - { offset: 0x4078A, size: 0x8, addend: 0x0, symName: __ZNSt3__114__shared_count12__add_sharedB8ne180100Ev, symObjAddr: 0x4B4C, symBinAddr: 0x10000624C, symSize: 0x28 }
  - { offset: 0x407B0, size: 0x8, addend: 0x0, symName: __ZNSt3__16vectorINS_10shared_ptrIN7rocksdb31TablePropertiesCollectorFactoryEEENS_9allocatorIS4_EEEC2ERKS7_, symObjAddr: 0x4BA4, symBinAddr: 0x1000062A4, symSize: 0x94 }
  - { offset: 0x407F6, size: 0x8, addend: 0x0, symName: __ZNSt3__116allocator_traitsINS_9allocatorINS_10shared_ptrIN7rocksdb31TablePropertiesCollectorFactoryEEEEEE37select_on_container_copy_constructionB8ne180100IS6_vvEES6_RKS6_, symObjAddr: 0x4C38, symBinAddr: 0x100006338, symSize: 0x10 }
  - { offset: 0x40825, size: 0x8, addend: 0x0, symName: __ZNKSt3__16vectorINS_10shared_ptrIN7rocksdb31TablePropertiesCollectorFactoryEEENS_9allocatorIS4_EEE7__allocB8ne180100Ev, symObjAddr: 0x4C48, symBinAddr: 0x100006348, symSize: 0x28 }
  - { offset: 0x40851, size: 0x8, addend: 0x0, symName: __ZNSt3__117__compressed_pairIPNS_10shared_ptrIN7rocksdb31TablePropertiesCollectorFactoryEEENS_9allocatorIS4_EEEC1B8ne180100IDnS7_EEOT_OT0_, symObjAddr: 0x4C70, symBinAddr: 0x100006370, symSize: 0x3C }
  - { offset: 0x408A9, size: 0x8, addend: 0x0, symName: __ZNSt3__16vectorINS_10shared_ptrIN7rocksdb31TablePropertiesCollectorFactoryEEENS_9allocatorIS4_EEE16__init_with_sizeB8ne180100IPS4_S9_EEvT_T0_m, symObjAddr: 0x4CAC, symBinAddr: 0x1000063AC, symSize: 0xB4 }
  - { offset: 0x4091D, size: 0x8, addend: 0x0, symName: __ZNKSt3__16vectorINS_10shared_ptrIN7rocksdb31TablePropertiesCollectorFactoryEEENS_9allocatorIS4_EEE4sizeB8ne180100Ev, symObjAddr: 0x4D60, symBinAddr: 0x100006460, symSize: 0x28 }
  - { offset: 0x40943, size: 0x8, addend: 0x0, symName: __ZNKSt3__117__compressed_pairIPNS_10shared_ptrIN7rocksdb31TablePropertiesCollectorFactoryEEENS_9allocatorIS4_EEE6secondB8ne180100Ev, symObjAddr: 0x4D88, symBinAddr: 0x100006488, symSize: 0x24 }
  - { offset: 0x40969, size: 0x8, addend: 0x0, symName: __ZNKSt3__122__compressed_pair_elemINS_9allocatorINS_10shared_ptrIN7rocksdb31TablePropertiesCollectorFactoryEEEEELi1ELb1EE5__getB8ne180100Ev, symObjAddr: 0x4DAC, symBinAddr: 0x1000064AC, symSize: 0x14 }
  - { offset: 0x4098F, size: 0x8, addend: 0x0, symName: __ZNSt3__117__compressed_pairIPNS_10shared_ptrIN7rocksdb31TablePropertiesCollectorFactoryEEENS_9allocatorIS4_EEEC2B8ne180100IDnS7_EEOT_OT0_, symObjAddr: 0x4DC0, symBinAddr: 0x1000064C0, symSize: 0x44 }
  - { offset: 0x409E7, size: 0x8, addend: 0x0, symName: __ZNSt3__122__compressed_pair_elemIPNS_10shared_ptrIN7rocksdb31TablePropertiesCollectorFactoryEEELi0ELb0EEC2B8ne180100IDnvEEOT_, symObjAddr: 0x4E04, symBinAddr: 0x100006504, symSize: 0x1C }
  - { offset: 0x40A29, size: 0x8, addend: 0x0, symName: __ZNSt3__122__compressed_pair_elemINS_9allocatorINS_10shared_ptrIN7rocksdb31TablePropertiesCollectorFactoryEEEEELi1ELb1EEC2B8ne180100IS6_vEEOT_, symObjAddr: 0x4E20, symBinAddr: 0x100006520, symSize: 0x18 }
  - { offset: 0x40A6B, size: 0x8, addend: 0x0, symName: __ZNSt3__16vectorINS_10shared_ptrIN7rocksdb31TablePropertiesCollectorFactoryEEENS_9allocatorIS4_EEE16__destroy_vectorC1B8ne180100ERS7_, symObjAddr: 0x4E78, symBinAddr: 0x100006578, symSize: 0x34 }
  - { offset: 0x40AA4, size: 0x8, addend: 0x0, symName: __ZNSt3__16vectorINS_10shared_ptrIN7rocksdb31TablePropertiesCollectorFactoryEEENS_9allocatorIS4_EEE11__vallocateB8ne180100Em, symObjAddr: 0x4EAC, symBinAddr: 0x1000065AC, symSize: 0xA8 }
  - { offset: 0x40AE8, size: 0x8, addend: 0x0, symName: __ZNSt3__16vectorINS_10shared_ptrIN7rocksdb31TablePropertiesCollectorFactoryEEENS_9allocatorIS4_EEE18__construct_at_endIPS4_S9_EEvT_T0_m, symObjAddr: 0x4F54, symBinAddr: 0x100006654, symSize: 0x8C }
  - { offset: 0x40B5C, size: 0x8, addend: 0x0, symName: __ZNSt3__128__exception_guard_exceptionsINS_6vectorINS_10shared_ptrIN7rocksdb31TablePropertiesCollectorFactoryEEENS_9allocatorIS5_EEE16__destroy_vectorEE10__completeB8ne180100Ev, symObjAddr: 0x4FE0, symBinAddr: 0x1000066E0, symSize: 0x1C }
  - { offset: 0x40B82, size: 0x8, addend: 0x0, symName: __ZNSt3__128__exception_guard_exceptionsINS_6vectorINS_10shared_ptrIN7rocksdb31TablePropertiesCollectorFactoryEEENS_9allocatorIS5_EEE16__destroy_vectorEED1B8ne180100Ev, symObjAddr: 0x4FFC, symBinAddr: 0x1000066FC, symSize: 0x2C }
  - { offset: 0x40BAC, size: 0x8, addend: 0x0, symName: __ZNSt3__128__exception_guard_exceptionsINS_6vectorINS_10shared_ptrIN7rocksdb31TablePropertiesCollectorFactoryEEENS_9allocatorIS5_EEE16__destroy_vectorEEC1B8ne180100ES9_, symObjAddr: 0x5028, symBinAddr: 0x100006728, symSize: 0x34 }
  - { offset: 0x40BE4, size: 0x8, addend: 0x0, symName: __ZNSt3__128__exception_guard_exceptionsINS_6vectorINS_10shared_ptrIN7rocksdb31TablePropertiesCollectorFactoryEEENS_9allocatorIS5_EEE16__destroy_vectorEEC2B8ne180100ES9_, symObjAddr: 0x505C, symBinAddr: 0x10000675C, symSize: 0x24 }
  - { offset: 0x40C1C, size: 0x8, addend: 0x0, symName: __ZNSt3__16vectorINS_10shared_ptrIN7rocksdb31TablePropertiesCollectorFactoryEEENS_9allocatorIS4_EEE16__destroy_vectorC2B8ne180100ERS7_, symObjAddr: 0x5080, symBinAddr: 0x100006780, symSize: 0x20 }
  - { offset: 0x40C55, size: 0x8, addend: 0x0, symName: __ZNKSt3__16vectorINS_10shared_ptrIN7rocksdb31TablePropertiesCollectorFactoryEEENS_9allocatorIS4_EEE8max_sizeEv, symObjAddr: 0x50A0, symBinAddr: 0x1000067A0, symSize: 0x60 }
  - { offset: 0x40C7D, size: 0x8, addend: 0x0, symName: __ZNKSt3__16vectorINS_10shared_ptrIN7rocksdb31TablePropertiesCollectorFactoryEEENS_9allocatorIS4_EEE20__throw_length_errorB8ne180100Ev, symObjAddr: 0x5100, symBinAddr: 0x100006800, symSize: 0x1C }
  - { offset: 0x40CA3, size: 0x8, addend: 0x0, symName: __ZNSt3__16vectorINS_10shared_ptrIN7rocksdb31TablePropertiesCollectorFactoryEEENS_9allocatorIS4_EEE7__allocB8ne180100Ev, symObjAddr: 0x515C, symBinAddr: 0x10000685C, symSize: 0x28 }
  - { offset: 0x40CC9, size: 0x8, addend: 0x0, symName: __ZNSt3__16vectorINS_10shared_ptrIN7rocksdb31TablePropertiesCollectorFactoryEEENS_9allocatorIS4_EEE9__end_capB8ne180100Ev, symObjAddr: 0x5184, symBinAddr: 0x100006884, symSize: 0x28 }
  - { offset: 0x40CEF, size: 0x8, addend: 0x0, symName: __ZNKSt3__16vectorINS_10shared_ptrIN7rocksdb31TablePropertiesCollectorFactoryEEENS_9allocatorIS4_EEE14__annotate_newB8ne180100Em, symObjAddr: 0x51AC, symBinAddr: 0x1000068AC, symSize: 0x14 }
  - { offset: 0x40D24, size: 0x8, addend: 0x0, symName: __ZNSt3__116allocator_traitsINS_9allocatorINS_10shared_ptrIN7rocksdb31TablePropertiesCollectorFactoryEEEEEE8max_sizeB8ne180100IS6_vEEmRKS6_, symObjAddr: 0x51C0, symBinAddr: 0x1000068C0, symSize: 0x24 }
  - { offset: 0x40D52, size: 0x8, addend: 0x0, symName: __ZNKSt3__19allocatorINS_10shared_ptrIN7rocksdb31TablePropertiesCollectorFactoryEEEE8max_sizeB8ne180100Ev, symObjAddr: 0x51E4, symBinAddr: 0x1000068E4, symSize: 0x14 }
  - { offset: 0x40D78, size: 0x8, addend: 0x0, symName: __ZNSt3__19allocatorINS_10shared_ptrIN7rocksdb31TablePropertiesCollectorFactoryEEEE8allocateB8ne180100Em, symObjAddr: 0x51F8, symBinAddr: 0x1000068F8, symSize: 0x54 }
  - { offset: 0x40DAC, size: 0x8, addend: 0x0, symName: __ZNSt3__117__compressed_pairIPNS_10shared_ptrIN7rocksdb31TablePropertiesCollectorFactoryEEENS_9allocatorIS4_EEE6secondB8ne180100Ev, symObjAddr: 0x524C, symBinAddr: 0x10000694C, symSize: 0x24 }
  - { offset: 0x40DD2, size: 0x8, addend: 0x0, symName: __ZNSt3__122__compressed_pair_elemINS_9allocatorINS_10shared_ptrIN7rocksdb31TablePropertiesCollectorFactoryEEEEELi1ELb1EE5__getB8ne180100Ev, symObjAddr: 0x5270, symBinAddr: 0x100006970, symSize: 0x14 }
  - { offset: 0x40DF8, size: 0x8, addend: 0x0, symName: __ZNSt3__117__compressed_pairIPNS_10shared_ptrIN7rocksdb31TablePropertiesCollectorFactoryEEENS_9allocatorIS4_EEE5firstB8ne180100Ev, symObjAddr: 0x5284, symBinAddr: 0x100006984, symSize: 0x24 }
  - { offset: 0x40E1E, size: 0x8, addend: 0x0, symName: __ZNSt3__122__compressed_pair_elemIPNS_10shared_ptrIN7rocksdb31TablePropertiesCollectorFactoryEEELi0ELb0EE5__getB8ne180100Ev, symObjAddr: 0x52A8, symBinAddr: 0x1000069A8, symSize: 0x14 }
  - { offset: 0x40E60, size: 0x8, addend: 0x0, symName: __ZNSt3__16vectorINS_10shared_ptrIN7rocksdb31TablePropertiesCollectorFactoryEEENS_9allocatorIS4_EEE21_ConstructTransactionC1B8ne180100ERS7_m, symObjAddr: 0x52BC, symBinAddr: 0x1000069BC, symSize: 0x3C }
  - { offset: 0x40EA8, size: 0x8, addend: 0x0, symName: __ZNSt3__16vectorINS_10shared_ptrIN7rocksdb31TablePropertiesCollectorFactoryEEENS_9allocatorIS4_EEE21_ConstructTransactionD1B8ne180100Ev, symObjAddr: 0x5378, symBinAddr: 0x100006A78, symSize: 0x2C }
  - { offset: 0x40ED2, size: 0x8, addend: 0x0, symName: __ZNSt3__16vectorINS_10shared_ptrIN7rocksdb31TablePropertiesCollectorFactoryEEENS_9allocatorIS4_EEE21_ConstructTransactionC2B8ne180100ERS7_m, symObjAddr: 0x53A4, symBinAddr: 0x100006AA4, symSize: 0x44 }
  - { offset: 0x40F3D, size: 0x8, addend: 0x0, symName: __ZNSt3__14pairIPNS_10shared_ptrIN7rocksdb31TablePropertiesCollectorFactoryEEES5_EC1B8ne180100IS5_S5_TnNS_9enable_ifIXclsr10_CheckArgsE17__enable_implicitIT_T0_EEEiE4typeELi0EEEOS9_OSA_, symObjAddr: 0x55D0, symBinAddr: 0x100006CD0, symSize: 0x3C }
  - { offset: 0x40F9B, size: 0x8, addend: 0x0, symName: __ZNSt3__14pairIPNS_10shared_ptrIN7rocksdb31TablePropertiesCollectorFactoryEEES5_EC2B8ne180100IS5_S5_TnNS_9enable_ifIXclsr10_CheckArgsE17__enable_implicitIT_T0_EEEiE4typeELi0EEEOS9_OSA_, symObjAddr: 0x560C, symBinAddr: 0x100006D0C, symSize: 0x34 }
  - { offset: 0x40FF9, size: 0x8, addend: 0x0, symName: __ZNSt3__129_AllocatorDestroyRangeReverseINS_9allocatorINS_10shared_ptrIN7rocksdb31TablePropertiesCollectorFactoryEEEEEPS5_EC1B8ne180100ERS6_RS7_SA_, symObjAddr: 0x568C, symBinAddr: 0x100006D8C, symSize: 0x44 }
  - { offset: 0x41050, size: 0x8, addend: 0x0, symName: __ZNSt3__116allocator_traitsINS_9allocatorINS_10shared_ptrIN7rocksdb31TablePropertiesCollectorFactoryEEEEEE9constructB8ne180100IS5_JRS5_EvEEvRS6_PT_DpOT0_, symObjAddr: 0x56D0, symBinAddr: 0x100006DD0, symSize: 0x34 }
  - { offset: 0x410A7, size: 0x8, addend: 0x0, symName: __ZNSt3__128__exception_guard_exceptionsINS_29_AllocatorDestroyRangeReverseINS_9allocatorINS_10shared_ptrIN7rocksdb31TablePropertiesCollectorFactoryEEEEEPS6_EEE10__completeB8ne180100Ev, symObjAddr: 0x5718, symBinAddr: 0x100006E18, symSize: 0x1C }
  - { offset: 0x410CD, size: 0x8, addend: 0x0, symName: __ZNSt3__128__exception_guard_exceptionsINS_29_AllocatorDestroyRangeReverseINS_9allocatorINS_10shared_ptrIN7rocksdb31TablePropertiesCollectorFactoryEEEEEPS6_EEED1B8ne180100Ev, symObjAddr: 0x5734, symBinAddr: 0x100006E34, symSize: 0x2C }
  - { offset: 0x410F7, size: 0x8, addend: 0x0, symName: __ZNSt3__128__exception_guard_exceptionsINS_29_AllocatorDestroyRangeReverseINS_9allocatorINS_10shared_ptrIN7rocksdb31TablePropertiesCollectorFactoryEEEEEPS6_EEEC1B8ne180100ES9_, symObjAddr: 0x5760, symBinAddr: 0x100006E60, symSize: 0x34 }
  - { offset: 0x41130, size: 0x8, addend: 0x0, symName: __ZNSt3__128__exception_guard_exceptionsINS_29_AllocatorDestroyRangeReverseINS_9allocatorINS_10shared_ptrIN7rocksdb31TablePropertiesCollectorFactoryEEEEEPS6_EEEC2B8ne180100ES9_, symObjAddr: 0x5794, symBinAddr: 0x100006E94, symSize: 0x30 }
  - { offset: 0x41169, size: 0x8, addend: 0x0, symName: __ZNSt3__129_AllocatorDestroyRangeReverseINS_9allocatorINS_10shared_ptrIN7rocksdb31TablePropertiesCollectorFactoryEEEEEPS5_EC2B8ne180100ERS6_RS7_SA_, symObjAddr: 0x57C4, symBinAddr: 0x100006EC4, symSize: 0x38 }
  - { offset: 0x411C0, size: 0x8, addend: 0x0, symName: __ZNSt3__19allocatorINS_10shared_ptrIN7rocksdb31TablePropertiesCollectorFactoryEEEE9constructB8ne180100IS4_JRS4_EEEvPT_DpOT0_, symObjAddr: 0x57FC, symBinAddr: 0x100006EFC, symSize: 0x30 }
  - { offset: 0x41216, size: 0x8, addend: 0x0, symName: __ZNSt3__110shared_ptrIN7rocksdb31TablePropertiesCollectorFactoryEEC1B8ne180100ERKS3_, symObjAddr: 0x582C, symBinAddr: 0x100006F2C, symSize: 0x34 }
  - { offset: 0x4124F, size: 0x8, addend: 0x0, symName: __ZNSt3__110shared_ptrIN7rocksdb31TablePropertiesCollectorFactoryEEC2B8ne180100ERKS3_, symObjAddr: 0x5860, symBinAddr: 0x100006F60, symSize: 0x68 }
  - { offset: 0x41288, size: 0x8, addend: 0x0, symName: __ZNSt3__128__exception_guard_exceptionsINS_29_AllocatorDestroyRangeReverseINS_9allocatorINS_10shared_ptrIN7rocksdb31TablePropertiesCollectorFactoryEEEEEPS6_EEED2B8ne180100Ev, symObjAddr: 0x58C8, symBinAddr: 0x100006FC8, symSize: 0x50 }
  - { offset: 0x412B2, size: 0x8, addend: 0x0, symName: __ZNKSt3__129_AllocatorDestroyRangeReverseINS_9allocatorINS_10shared_ptrIN7rocksdb31TablePropertiesCollectorFactoryEEEEEPS5_EclB8ne180100Ev, symObjAddr: 0x5918, symBinAddr: 0x100007018, symSize: 0x68 }
  - { offset: 0x412D8, size: 0x8, addend: 0x0, symName: __ZNSt3__116reverse_iteratorIPNS_10shared_ptrIN7rocksdb31TablePropertiesCollectorFactoryEEEEC1B8ne180100ES5_, symObjAddr: 0x59F0, symBinAddr: 0x1000070F0, symSize: 0x34 }
  - { offset: 0x41310, size: 0x8, addend: 0x0, symName: __ZNSt3__116allocator_traitsINS_9allocatorINS_10shared_ptrIN7rocksdb31TablePropertiesCollectorFactoryEEEEEE7destroyB8ne180100IS5_vEEvRS6_PT_, symObjAddr: 0x5A68, symBinAddr: 0x100007168, symSize: 0x2C }
  - { offset: 0x4134D, size: 0x8, addend: 0x0, symName: __ZNSt3__116reverse_iteratorIPNS_10shared_ptrIN7rocksdb31TablePropertiesCollectorFactoryEEEEppB8ne180100Ev, symObjAddr: 0x5AB8, symBinAddr: 0x1000071B8, symSize: 0x20 }
  - { offset: 0x41373, size: 0x8, addend: 0x0, symName: __ZNKSt3__116reverse_iteratorIPNS_10shared_ptrIN7rocksdb31TablePropertiesCollectorFactoryEEEE4baseB8ne180100Ev, symObjAddr: 0x5AD8, symBinAddr: 0x1000071D8, symSize: 0x18 }
  - { offset: 0x41399, size: 0x8, addend: 0x0, symName: __ZNSt3__19allocatorINS_10shared_ptrIN7rocksdb31TablePropertiesCollectorFactoryEEEE7destroyB8ne180100EPS4_, symObjAddr: 0x5AF0, symBinAddr: 0x1000071F0, symSize: 0x28 }
  - { offset: 0x413CD, size: 0x8, addend: 0x0, symName: __ZNSt3__110shared_ptrIN7rocksdb31TablePropertiesCollectorFactoryEED1B8ne180100Ev, symObjAddr: 0x5B18, symBinAddr: 0x100007218, symSize: 0x2C }
  - { offset: 0x413F7, size: 0x8, addend: 0x0, symName: __ZNSt3__110shared_ptrIN7rocksdb31TablePropertiesCollectorFactoryEED2B8ne180100Ev, symObjAddr: 0x5B44, symBinAddr: 0x100007244, symSize: 0x4C }
  - { offset: 0x41421, size: 0x8, addend: 0x0, symName: __ZNSt3__119__shared_weak_count16__release_sharedB8ne180100Ev, symObjAddr: 0x5B90, symBinAddr: 0x100007290, symSize: 0x3C }
  - { offset: 0x41447, size: 0x8, addend: 0x0, symName: __ZNSt3__114__shared_count16__release_sharedB8ne180100Ev, symObjAddr: 0x5BCC, symBinAddr: 0x1000072CC, symSize: 0x78 }
  - { offset: 0x41473, size: 0x8, addend: 0x0, symName: __ZNSt3__119__to_address_helperINS_16reverse_iteratorIPNS_10shared_ptrIN7rocksdb31TablePropertiesCollectorFactoryEEEEEvE6__callB8ne180100ERKS7_, symObjAddr: 0x5C74, symBinAddr: 0x100007374, symSize: 0x38 }
  - { offset: 0x41496, size: 0x8, addend: 0x0, symName: __ZNKSt3__116reverse_iteratorIPNS_10shared_ptrIN7rocksdb31TablePropertiesCollectorFactoryEEEEptB8ne180100Ev, symObjAddr: 0x5CAC, symBinAddr: 0x1000073AC, symSize: 0x24 }
  - { offset: 0x414BC, size: 0x8, addend: 0x0, symName: __ZNKSt3__116reverse_iteratorIPNS_10shared_ptrIN7rocksdb31TablePropertiesCollectorFactoryEEEEdeB8ne180100Ev, symObjAddr: 0x5CD0, symBinAddr: 0x1000073D0, symSize: 0x28 }
  - { offset: 0x414F0, size: 0x8, addend: 0x0, symName: __ZNSt3__116reverse_iteratorIPNS_10shared_ptrIN7rocksdb31TablePropertiesCollectorFactoryEEEEC2B8ne180100ES5_, symObjAddr: 0x5CF8, symBinAddr: 0x1000073F8, symSize: 0x28 }
  - { offset: 0x41528, size: 0x8, addend: 0x0, symName: __ZNSt3__118__unwrap_iter_implIPNS_10shared_ptrIN7rocksdb31TablePropertiesCollectorFactoryEEELb1EE8__unwrapB8ne180100ES5_, symObjAddr: 0x5D20, symBinAddr: 0x100007420, symSize: 0x24 }
  - { offset: 0x4154B, size: 0x8, addend: 0x0, symName: __ZNSt3__118__unwrap_iter_implIPNS_10shared_ptrIN7rocksdb31TablePropertiesCollectorFactoryEEELb1EE8__rewrapB8ne180100ES5_S5_, symObjAddr: 0x5D44, symBinAddr: 0x100007444, symSize: 0x50 }
  - { offset: 0x4157C, size: 0x8, addend: 0x0, symName: __ZNSt3__16vectorINS_10shared_ptrIN7rocksdb31TablePropertiesCollectorFactoryEEENS_9allocatorIS4_EEE21_ConstructTransactionD2B8ne180100Ev, symObjAddr: 0x5D94, symBinAddr: 0x100007494, symSize: 0x20 }
  - { offset: 0x415A6, size: 0x8, addend: 0x0, symName: __ZNSt3__128__exception_guard_exceptionsINS_6vectorINS_10shared_ptrIN7rocksdb31TablePropertiesCollectorFactoryEEENS_9allocatorIS5_EEE16__destroy_vectorEED2B8ne180100Ev, symObjAddr: 0x5DB4, symBinAddr: 0x1000074B4, symSize: 0x50 }
  - { offset: 0x415D0, size: 0x8, addend: 0x0, symName: __ZNSt3__16vectorINS_10shared_ptrIN7rocksdb31TablePropertiesCollectorFactoryEEENS_9allocatorIS4_EEE16__destroy_vectorclB8ne180100Ev, symObjAddr: 0x5E04, symBinAddr: 0x100007504, symSize: 0x88 }
  - { offset: 0x415F6, size: 0x8, addend: 0x0, symName: __ZNSt3__16vectorINS_10shared_ptrIN7rocksdb31TablePropertiesCollectorFactoryEEENS_9allocatorIS4_EEE7__clearB8ne180100Ev, symObjAddr: 0x5E8C, symBinAddr: 0x10000758C, symSize: 0x28 }
  - { offset: 0x4161C, size: 0x8, addend: 0x0, symName: __ZNKSt3__16vectorINS_10shared_ptrIN7rocksdb31TablePropertiesCollectorFactoryEEENS_9allocatorIS4_EEE17__annotate_deleteB8ne180100Ev, symObjAddr: 0x5EB4, symBinAddr: 0x1000075B4, symSize: 0x10 }
  - { offset: 0x41642, size: 0x8, addend: 0x0, symName: __ZNSt3__116allocator_traitsINS_9allocatorINS_10shared_ptrIN7rocksdb31TablePropertiesCollectorFactoryEEEEEE10deallocateB8ne180100ERS6_PS5_m, symObjAddr: 0x5EC4, symBinAddr: 0x1000075C4, symSize: 0x34 }
  - { offset: 0x41684, size: 0x8, addend: 0x0, symName: __ZNKSt3__16vectorINS_10shared_ptrIN7rocksdb31TablePropertiesCollectorFactoryEEENS_9allocatorIS4_EEE8capacityB8ne180100Ev, symObjAddr: 0x5EF8, symBinAddr: 0x1000075F8, symSize: 0x40 }
  - { offset: 0x416AA, size: 0x8, addend: 0x0, symName: __ZNSt3__16vectorINS_10shared_ptrIN7rocksdb31TablePropertiesCollectorFactoryEEENS_9allocatorIS4_EEE22__base_destruct_at_endB8ne180100EPS4_, symObjAddr: 0x5F38, symBinAddr: 0x100007638, symSize: 0x88 }
  - { offset: 0x416EE, size: 0x8, addend: 0x0, symName: __ZNSt3__19allocatorINS_10shared_ptrIN7rocksdb31TablePropertiesCollectorFactoryEEEE10deallocateB8ne180100EPS4_m, symObjAddr: 0x5FC0, symBinAddr: 0x1000076C0, symSize: 0x40 }
  - { offset: 0x41730, size: 0x8, addend: 0x0, symName: __ZNKSt3__16vectorINS_10shared_ptrIN7rocksdb31TablePropertiesCollectorFactoryEEENS_9allocatorIS4_EEE9__end_capB8ne180100Ev, symObjAddr: 0x6000, symBinAddr: 0x100007700, symSize: 0x28 }
  - { offset: 0x41756, size: 0x8, addend: 0x0, symName: __ZNKSt3__117__compressed_pairIPNS_10shared_ptrIN7rocksdb31TablePropertiesCollectorFactoryEEENS_9allocatorIS4_EEE5firstB8ne180100Ev, symObjAddr: 0x6028, symBinAddr: 0x100007728, symSize: 0x24 }
  - { offset: 0x4177C, size: 0x8, addend: 0x0, symName: __ZNKSt3__122__compressed_pair_elemIPNS_10shared_ptrIN7rocksdb31TablePropertiesCollectorFactoryEEELi0ELb0EE5__getB8ne180100Ev, symObjAddr: 0x604C, symBinAddr: 0x10000774C, symSize: 0x14 }
  - { offset: 0x417A2, size: 0x8, addend: 0x0, symName: __ZNSt3__110shared_ptrIN7rocksdb5CacheEEC2B8ne180100ERKS3_, symObjAddr: 0x6060, symBinAddr: 0x100007760, symSize: 0x68 }
  - { offset: 0x417DB, size: 0x8, addend: 0x0, symName: __ZNSt3__110shared_ptrIN7rocksdb18MemTableRepFactoryEED2B8ne180100Ev, symObjAddr: 0x60C8, symBinAddr: 0x1000077C8, symSize: 0x4C }
  - { offset: 0x41805, size: 0x8, addend: 0x0, symName: __ZN7rocksdb21CompactionOptionsFIFOD2Ev, symObjAddr: 0x6114, symBinAddr: 0x100007814, symSize: 0x30 }
  - { offset: 0x41831, size: 0x8, addend: 0x0, symName: __ZNSt3__16vectorIN7rocksdb18FileTemperatureAgeENS_9allocatorIS2_EEED1B8ne180100Ev, symObjAddr: 0x6144, symBinAddr: 0x100007844, symSize: 0x2C }
  - { offset: 0x4185B, size: 0x8, addend: 0x0, symName: __ZNSt3__16vectorIN7rocksdb18FileTemperatureAgeENS_9allocatorIS2_EEED2B8ne180100Ev, symObjAddr: 0x6170, symBinAddr: 0x100007870, symSize: 0x40 }
  - { offset: 0x41885, size: 0x8, addend: 0x0, symName: __ZNSt3__16vectorIiNS_9allocatorIiEEED2B8ne180100Ev, symObjAddr: 0x61B0, symBinAddr: 0x1000078B0, symSize: 0x40 }
  - { offset: 0x418AF, size: 0x8, addend: 0x0, symName: __ZNSt3__16vectorIN7rocksdb15CompressionTypeENS_9allocatorIS2_EEED2B8ne180100Ev, symObjAddr: 0x61F0, symBinAddr: 0x1000078F0, symSize: 0x40 }
  - { offset: 0x418D9, size: 0x8, addend: 0x0, symName: __ZNSt3__110shared_ptrIN7rocksdb13MergeOperatorEEC2B8ne180100ERKS3_, symObjAddr: 0x6230, symBinAddr: 0x100007930, symSize: 0x68 }
  - { offset: 0x41912, size: 0x8, addend: 0x0, symName: __ZNSt3__110shared_ptrIN7rocksdb23CompactionFilterFactoryEEC2B8ne180100ERKS3_, symObjAddr: 0x6298, symBinAddr: 0x100007998, symSize: 0x68 }
  - { offset: 0x4194B, size: 0x8, addend: 0x0, symName: __ZNSt3__110shared_ptrIKN7rocksdb14SliceTransformEEC2B8ne180100ERKS4_, symObjAddr: 0x6300, symBinAddr: 0x100007A00, symSize: 0x68 }
  - { offset: 0x41984, size: 0x8, addend: 0x0, symName: __ZNSt3__110shared_ptrIN7rocksdb12TableFactoryEEC2B8ne180100ERKS3_, symObjAddr: 0x6368, symBinAddr: 0x100007A68, symSize: 0x68 }
  - { offset: 0x419BD, size: 0x8, addend: 0x0, symName: __ZNSt3__16vectorIN7rocksdb6DbPathENS_9allocatorIS2_EEEC2ERKS5_, symObjAddr: 0x63D0, symBinAddr: 0x100007AD0, symSize: 0x94 }
  - { offset: 0x41A03, size: 0x8, addend: 0x0, symName: __ZNSt3__116allocator_traitsINS_9allocatorIN7rocksdb6DbPathEEEE37select_on_container_copy_constructionB8ne180100IS4_vvEES4_RKS4_, symObjAddr: 0x6464, symBinAddr: 0x100007B64, symSize: 0x10 }
  - { offset: 0x41A32, size: 0x8, addend: 0x0, symName: __ZNKSt3__16vectorIN7rocksdb6DbPathENS_9allocatorIS2_EEE7__allocB8ne180100Ev, symObjAddr: 0x6474, symBinAddr: 0x100007B74, symSize: 0x28 }
  - { offset: 0x41A5E, size: 0x8, addend: 0x0, symName: __ZNSt3__117__compressed_pairIPN7rocksdb6DbPathENS_9allocatorIS2_EEEC1B8ne180100IDnS5_EEOT_OT0_, symObjAddr: 0x649C, symBinAddr: 0x100007B9C, symSize: 0x3C }
  - { offset: 0x41AB6, size: 0x8, addend: 0x0, symName: __ZNSt3__16vectorIN7rocksdb6DbPathENS_9allocatorIS2_EEE16__init_with_sizeB8ne180100IPS2_S7_EEvT_T0_m, symObjAddr: 0x64D8, symBinAddr: 0x100007BD8, symSize: 0xB4 }
  - { offset: 0x41B2A, size: 0x8, addend: 0x0, symName: __ZNKSt3__16vectorIN7rocksdb6DbPathENS_9allocatorIS2_EEE4sizeB8ne180100Ev, symObjAddr: 0x658C, symBinAddr: 0x100007C8C, symSize: 0x28 }
  - { offset: 0x41B50, size: 0x8, addend: 0x0, symName: __ZNKSt3__117__compressed_pairIPN7rocksdb6DbPathENS_9allocatorIS2_EEE6secondB8ne180100Ev, symObjAddr: 0x65B4, symBinAddr: 0x100007CB4, symSize: 0x24 }
  - { offset: 0x41B76, size: 0x8, addend: 0x0, symName: __ZNKSt3__122__compressed_pair_elemINS_9allocatorIN7rocksdb6DbPathEEELi1ELb1EE5__getB8ne180100Ev, symObjAddr: 0x65D8, symBinAddr: 0x100007CD8, symSize: 0x14 }
  - { offset: 0x41B9C, size: 0x8, addend: 0x0, symName: __ZNSt3__117__compressed_pairIPN7rocksdb6DbPathENS_9allocatorIS2_EEEC2B8ne180100IDnS5_EEOT_OT0_, symObjAddr: 0x65EC, symBinAddr: 0x100007CEC, symSize: 0x44 }
  - { offset: 0x41BF4, size: 0x8, addend: 0x0, symName: __ZNSt3__122__compressed_pair_elemIPN7rocksdb6DbPathELi0ELb0EEC2B8ne180100IDnvEEOT_, symObjAddr: 0x6630, symBinAddr: 0x100007D30, symSize: 0x1C }
  - { offset: 0x41C36, size: 0x8, addend: 0x0, symName: __ZNSt3__122__compressed_pair_elemINS_9allocatorIN7rocksdb6DbPathEEELi1ELb1EEC2B8ne180100IS4_vEEOT_, symObjAddr: 0x664C, symBinAddr: 0x100007D4C, symSize: 0x18 }
  - { offset: 0x41C78, size: 0x8, addend: 0x0, symName: __ZNSt3__16vectorIN7rocksdb6DbPathENS_9allocatorIS2_EEE16__destroy_vectorC1B8ne180100ERS5_, symObjAddr: 0x66A4, symBinAddr: 0x100007DA4, symSize: 0x34 }
  - { offset: 0x41CB1, size: 0x8, addend: 0x0, symName: __ZNSt3__16vectorIN7rocksdb6DbPathENS_9allocatorIS2_EEE11__vallocateB8ne180100Em, symObjAddr: 0x66D8, symBinAddr: 0x100007DD8, symSize: 0xA8 }
  - { offset: 0x41CF5, size: 0x8, addend: 0x0, symName: __ZNSt3__16vectorIN7rocksdb6DbPathENS_9allocatorIS2_EEE18__construct_at_endIPS2_S7_EEvT_T0_m, symObjAddr: 0x6780, symBinAddr: 0x100007E80, symSize: 0x8C }
  - { offset: 0x41D69, size: 0x8, addend: 0x0, symName: __ZNSt3__128__exception_guard_exceptionsINS_6vectorIN7rocksdb6DbPathENS_9allocatorIS3_EEE16__destroy_vectorEE10__completeB8ne180100Ev, symObjAddr: 0x680C, symBinAddr: 0x100007F0C, symSize: 0x1C }
  - { offset: 0x41D8F, size: 0x8, addend: 0x0, symName: __ZNSt3__128__exception_guard_exceptionsINS_6vectorIN7rocksdb6DbPathENS_9allocatorIS3_EEE16__destroy_vectorEED1B8ne180100Ev, symObjAddr: 0x6828, symBinAddr: 0x100007F28, symSize: 0x2C }
  - { offset: 0x41DB9, size: 0x8, addend: 0x0, symName: __ZNSt3__128__exception_guard_exceptionsINS_6vectorIN7rocksdb6DbPathENS_9allocatorIS3_EEE16__destroy_vectorEEC1B8ne180100ES7_, symObjAddr: 0x6854, symBinAddr: 0x100007F54, symSize: 0x34 }
  - { offset: 0x41DF1, size: 0x8, addend: 0x0, symName: __ZNSt3__128__exception_guard_exceptionsINS_6vectorIN7rocksdb6DbPathENS_9allocatorIS3_EEE16__destroy_vectorEEC2B8ne180100ES7_, symObjAddr: 0x6888, symBinAddr: 0x100007F88, symSize: 0x24 }
  - { offset: 0x41E29, size: 0x8, addend: 0x0, symName: __ZNSt3__16vectorIN7rocksdb6DbPathENS_9allocatorIS2_EEE16__destroy_vectorC2B8ne180100ERS5_, symObjAddr: 0x68AC, symBinAddr: 0x100007FAC, symSize: 0x20 }
  - { offset: 0x41E62, size: 0x8, addend: 0x0, symName: __ZNKSt3__16vectorIN7rocksdb6DbPathENS_9allocatorIS2_EEE8max_sizeEv, symObjAddr: 0x68CC, symBinAddr: 0x100007FCC, symSize: 0x60 }
  - { offset: 0x41E8A, size: 0x8, addend: 0x0, symName: __ZNKSt3__16vectorIN7rocksdb6DbPathENS_9allocatorIS2_EEE20__throw_length_errorB8ne180100Ev, symObjAddr: 0x692C, symBinAddr: 0x10000802C, symSize: 0x1C }
  - { offset: 0x41EB0, size: 0x8, addend: 0x0, symName: __ZNSt3__16vectorIN7rocksdb6DbPathENS_9allocatorIS2_EEE7__allocB8ne180100Ev, symObjAddr: 0x6988, symBinAddr: 0x100008088, symSize: 0x28 }
  - { offset: 0x41ED6, size: 0x8, addend: 0x0, symName: __ZNSt3__16vectorIN7rocksdb6DbPathENS_9allocatorIS2_EEE9__end_capB8ne180100Ev, symObjAddr: 0x69B0, symBinAddr: 0x1000080B0, symSize: 0x28 }
  - { offset: 0x41EFC, size: 0x8, addend: 0x0, symName: __ZNKSt3__16vectorIN7rocksdb6DbPathENS_9allocatorIS2_EEE14__annotate_newB8ne180100Em, symObjAddr: 0x69D8, symBinAddr: 0x1000080D8, symSize: 0x14 }
  - { offset: 0x41F31, size: 0x8, addend: 0x0, symName: __ZNSt3__116allocator_traitsINS_9allocatorIN7rocksdb6DbPathEEEE8max_sizeB8ne180100IS4_vEEmRKS4_, symObjAddr: 0x69EC, symBinAddr: 0x1000080EC, symSize: 0x24 }
  - { offset: 0x41F5F, size: 0x8, addend: 0x0, symName: __ZNKSt3__19allocatorIN7rocksdb6DbPathEE8max_sizeB8ne180100Ev, symObjAddr: 0x6A10, symBinAddr: 0x100008110, symSize: 0x14 }
  - { offset: 0x41F85, size: 0x8, addend: 0x0, symName: __ZNSt3__19allocatorIN7rocksdb6DbPathEE8allocateB8ne180100Em, symObjAddr: 0x6A24, symBinAddr: 0x100008124, symSize: 0x54 }
  - { offset: 0x41FB9, size: 0x8, addend: 0x0, symName: __ZNSt3__117__compressed_pairIPN7rocksdb6DbPathENS_9allocatorIS2_EEE6secondB8ne180100Ev, symObjAddr: 0x6A78, symBinAddr: 0x100008178, symSize: 0x24 }
  - { offset: 0x41FDF, size: 0x8, addend: 0x0, symName: __ZNSt3__122__compressed_pair_elemINS_9allocatorIN7rocksdb6DbPathEEELi1ELb1EE5__getB8ne180100Ev, symObjAddr: 0x6A9C, symBinAddr: 0x10000819C, symSize: 0x14 }
  - { offset: 0x42005, size: 0x8, addend: 0x0, symName: __ZNSt3__117__compressed_pairIPN7rocksdb6DbPathENS_9allocatorIS2_EEE5firstB8ne180100Ev, symObjAddr: 0x6AB0, symBinAddr: 0x1000081B0, symSize: 0x24 }
  - { offset: 0x4202B, size: 0x8, addend: 0x0, symName: __ZNSt3__122__compressed_pair_elemIPN7rocksdb6DbPathELi0ELb0EE5__getB8ne180100Ev, symObjAddr: 0x6AD4, symBinAddr: 0x1000081D4, symSize: 0x14 }
  - { offset: 0x4206D, size: 0x8, addend: 0x0, symName: __ZNSt3__16vectorIN7rocksdb6DbPathENS_9allocatorIS2_EEE21_ConstructTransactionC1B8ne180100ERS5_m, symObjAddr: 0x6AE8, symBinAddr: 0x1000081E8, symSize: 0x3C }
  - { offset: 0x420B5, size: 0x8, addend: 0x0, symName: __ZNSt3__16vectorIN7rocksdb6DbPathENS_9allocatorIS2_EEE21_ConstructTransactionD1B8ne180100Ev, symObjAddr: 0x6BA4, symBinAddr: 0x1000082A4, symSize: 0x2C }
  - { offset: 0x420DF, size: 0x8, addend: 0x0, symName: __ZNSt3__16vectorIN7rocksdb6DbPathENS_9allocatorIS2_EEE21_ConstructTransactionC2B8ne180100ERS5_m, symObjAddr: 0x6BD0, symBinAddr: 0x1000082D0, symSize: 0x44 }
  - { offset: 0x4214A, size: 0x8, addend: 0x0, symName: __ZNSt3__14pairIPN7rocksdb6DbPathES3_EC1B8ne180100IS3_S3_TnNS_9enable_ifIXclsr10_CheckArgsE17__enable_implicitIT_T0_EEEiE4typeELi0EEEOS7_OS8_, symObjAddr: 0x6DFC, symBinAddr: 0x1000084FC, symSize: 0x3C }
  - { offset: 0x421A8, size: 0x8, addend: 0x0, symName: __ZNSt3__14pairIPN7rocksdb6DbPathES3_EC2B8ne180100IS3_S3_TnNS_9enable_ifIXclsr10_CheckArgsE17__enable_implicitIT_T0_EEEiE4typeELi0EEEOS7_OS8_, symObjAddr: 0x6E38, symBinAddr: 0x100008538, symSize: 0x34 }
  - { offset: 0x42206, size: 0x8, addend: 0x0, symName: __ZNSt3__129_AllocatorDestroyRangeReverseINS_9allocatorIN7rocksdb6DbPathEEEPS3_EC1B8ne180100ERS4_RS5_S8_, symObjAddr: 0x6EB8, symBinAddr: 0x1000085B8, symSize: 0x44 }
  - { offset: 0x4225D, size: 0x8, addend: 0x0, symName: __ZNSt3__116allocator_traitsINS_9allocatorIN7rocksdb6DbPathEEEE9constructB8ne180100IS3_JRS3_EvEEvRS4_PT_DpOT0_, symObjAddr: 0x6EFC, symBinAddr: 0x1000085FC, symSize: 0x34 }
  - { offset: 0x422B4, size: 0x8, addend: 0x0, symName: __ZNSt3__128__exception_guard_exceptionsINS_29_AllocatorDestroyRangeReverseINS_9allocatorIN7rocksdb6DbPathEEEPS4_EEE10__completeB8ne180100Ev, symObjAddr: 0x6F44, symBinAddr: 0x100008644, symSize: 0x1C }
  - { offset: 0x422DA, size: 0x8, addend: 0x0, symName: __ZNSt3__128__exception_guard_exceptionsINS_29_AllocatorDestroyRangeReverseINS_9allocatorIN7rocksdb6DbPathEEEPS4_EEED1B8ne180100Ev, symObjAddr: 0x6F60, symBinAddr: 0x100008660, symSize: 0x2C }
  - { offset: 0x42304, size: 0x8, addend: 0x0, symName: __ZNSt3__128__exception_guard_exceptionsINS_29_AllocatorDestroyRangeReverseINS_9allocatorIN7rocksdb6DbPathEEEPS4_EEEC1B8ne180100ES7_, symObjAddr: 0x6F8C, symBinAddr: 0x10000868C, symSize: 0x34 }
  - { offset: 0x4233D, size: 0x8, addend: 0x0, symName: __ZNSt3__128__exception_guard_exceptionsINS_29_AllocatorDestroyRangeReverseINS_9allocatorIN7rocksdb6DbPathEEEPS4_EEEC2B8ne180100ES7_, symObjAddr: 0x6FC0, symBinAddr: 0x1000086C0, symSize: 0x30 }
  - { offset: 0x42376, size: 0x8, addend: 0x0, symName: __ZNSt3__129_AllocatorDestroyRangeReverseINS_9allocatorIN7rocksdb6DbPathEEEPS3_EC2B8ne180100ERS4_RS5_S8_, symObjAddr: 0x6FF0, symBinAddr: 0x1000086F0, symSize: 0x38 }
  - { offset: 0x423CD, size: 0x8, addend: 0x0, symName: __ZNSt3__19allocatorIN7rocksdb6DbPathEE9constructB8ne180100IS2_JRS2_EEEvPT_DpOT0_, symObjAddr: 0x7028, symBinAddr: 0x100008728, symSize: 0x30 }
  - { offset: 0x42423, size: 0x8, addend: 0x0, symName: __ZN7rocksdb6DbPathC1ERKS0_, symObjAddr: 0x7058, symBinAddr: 0x100008758, symSize: 0x34 }
  - { offset: 0x42459, size: 0x8, addend: 0x0, symName: __ZN7rocksdb6DbPathC2ERKS0_, symObjAddr: 0x708C, symBinAddr: 0x10000878C, symSize: 0x40 }
  - { offset: 0x4248F, size: 0x8, addend: 0x0, symName: __ZNSt3__128__exception_guard_exceptionsINS_29_AllocatorDestroyRangeReverseINS_9allocatorIN7rocksdb6DbPathEEEPS4_EEED2B8ne180100Ev, symObjAddr: 0x70CC, symBinAddr: 0x1000087CC, symSize: 0x50 }
  - { offset: 0x424B9, size: 0x8, addend: 0x0, symName: __ZNKSt3__129_AllocatorDestroyRangeReverseINS_9allocatorIN7rocksdb6DbPathEEEPS3_EclB8ne180100Ev, symObjAddr: 0x711C, symBinAddr: 0x10000881C, symSize: 0x68 }
  - { offset: 0x424DF, size: 0x8, addend: 0x0, symName: __ZNSt3__116reverse_iteratorIPN7rocksdb6DbPathEEC1B8ne180100ES3_, symObjAddr: 0x71F4, symBinAddr: 0x1000088F4, symSize: 0x34 }
  - { offset: 0x42517, size: 0x8, addend: 0x0, symName: __ZNSt3__116allocator_traitsINS_9allocatorIN7rocksdb6DbPathEEEE7destroyB8ne180100IS3_vEEvRS4_PT_, symObjAddr: 0x726C, symBinAddr: 0x10000896C, symSize: 0x2C }
  - { offset: 0x42554, size: 0x8, addend: 0x0, symName: __ZNSt3__116reverse_iteratorIPN7rocksdb6DbPathEEppB8ne180100Ev, symObjAddr: 0x72BC, symBinAddr: 0x1000089BC, symSize: 0x20 }
  - { offset: 0x4257A, size: 0x8, addend: 0x0, symName: __ZNKSt3__116reverse_iteratorIPN7rocksdb6DbPathEE4baseB8ne180100Ev, symObjAddr: 0x72DC, symBinAddr: 0x1000089DC, symSize: 0x18 }
  - { offset: 0x425A0, size: 0x8, addend: 0x0, symName: __ZNSt3__19allocatorIN7rocksdb6DbPathEE7destroyB8ne180100EPS2_, symObjAddr: 0x72F4, symBinAddr: 0x1000089F4, symSize: 0x28 }
  - { offset: 0x425D4, size: 0x8, addend: 0x0, symName: __ZN7rocksdb6DbPathD1Ev, symObjAddr: 0x731C, symBinAddr: 0x100008A1C, symSize: 0x2C }
  - { offset: 0x42601, size: 0x8, addend: 0x0, symName: __ZN7rocksdb6DbPathD2Ev, symObjAddr: 0x7348, symBinAddr: 0x100008A48, symSize: 0x2C }
  - { offset: 0x42634, size: 0x8, addend: 0x0, symName: __ZNSt3__119__to_address_helperINS_16reverse_iteratorIPN7rocksdb6DbPathEEEvE6__callB8ne180100ERKS5_, symObjAddr: 0x7374, symBinAddr: 0x100008A74, symSize: 0x38 }
  - { offset: 0x42657, size: 0x8, addend: 0x0, symName: __ZNKSt3__116reverse_iteratorIPN7rocksdb6DbPathEEptB8ne180100Ev, symObjAddr: 0x73AC, symBinAddr: 0x100008AAC, symSize: 0x24 }
  - { offset: 0x4267D, size: 0x8, addend: 0x0, symName: __ZNKSt3__116reverse_iteratorIPN7rocksdb6DbPathEEdeB8ne180100Ev, symObjAddr: 0x73D0, symBinAddr: 0x100008AD0, symSize: 0x28 }
  - { offset: 0x426B1, size: 0x8, addend: 0x0, symName: __ZNSt3__116reverse_iteratorIPN7rocksdb6DbPathEEC2B8ne180100ES3_, symObjAddr: 0x73F8, symBinAddr: 0x100008AF8, symSize: 0x28 }
  - { offset: 0x426E9, size: 0x8, addend: 0x0, symName: __ZNSt3__118__unwrap_iter_implIPN7rocksdb6DbPathELb1EE8__unwrapB8ne180100ES3_, symObjAddr: 0x7420, symBinAddr: 0x100008B20, symSize: 0x24 }
  - { offset: 0x4270C, size: 0x8, addend: 0x0, symName: __ZNSt3__118__unwrap_iter_implIPN7rocksdb6DbPathELb1EE8__rewrapB8ne180100ES3_S3_, symObjAddr: 0x7444, symBinAddr: 0x100008B44, symSize: 0x50 }
  - { offset: 0x4273D, size: 0x8, addend: 0x0, symName: __ZNSt3__16vectorIN7rocksdb6DbPathENS_9allocatorIS2_EEE21_ConstructTransactionD2B8ne180100Ev, symObjAddr: 0x7494, symBinAddr: 0x100008B94, symSize: 0x20 }
  - { offset: 0x42767, size: 0x8, addend: 0x0, symName: __ZNSt3__128__exception_guard_exceptionsINS_6vectorIN7rocksdb6DbPathENS_9allocatorIS3_EEE16__destroy_vectorEED2B8ne180100Ev, symObjAddr: 0x74B4, symBinAddr: 0x100008BB4, symSize: 0x50 }
  - { offset: 0x42791, size: 0x8, addend: 0x0, symName: __ZNSt3__16vectorIN7rocksdb6DbPathENS_9allocatorIS2_EEE16__destroy_vectorclB8ne180100Ev, symObjAddr: 0x7504, symBinAddr: 0x100008C04, symSize: 0x88 }
  - { offset: 0x427B7, size: 0x8, addend: 0x0, symName: __ZNSt3__16vectorIN7rocksdb6DbPathENS_9allocatorIS2_EEE7__clearB8ne180100Ev, symObjAddr: 0x758C, symBinAddr: 0x100008C8C, symSize: 0x28 }
  - { offset: 0x427DD, size: 0x8, addend: 0x0, symName: __ZNKSt3__16vectorIN7rocksdb6DbPathENS_9allocatorIS2_EEE17__annotate_deleteB8ne180100Ev, symObjAddr: 0x75B4, symBinAddr: 0x100008CB4, symSize: 0x10 }
  - { offset: 0x42803, size: 0x8, addend: 0x0, symName: __ZNSt3__116allocator_traitsINS_9allocatorIN7rocksdb6DbPathEEEE10deallocateB8ne180100ERS4_PS3_m, symObjAddr: 0x75C4, symBinAddr: 0x100008CC4, symSize: 0x34 }
  - { offset: 0x42845, size: 0x8, addend: 0x0, symName: __ZNKSt3__16vectorIN7rocksdb6DbPathENS_9allocatorIS2_EEE8capacityB8ne180100Ev, symObjAddr: 0x75F8, symBinAddr: 0x100008CF8, symSize: 0x40 }
  - { offset: 0x4286B, size: 0x8, addend: 0x0, symName: __ZNSt3__16vectorIN7rocksdb6DbPathENS_9allocatorIS2_EEE22__base_destruct_at_endB8ne180100EPS2_, symObjAddr: 0x7638, symBinAddr: 0x100008D38, symSize: 0x88 }
  - { offset: 0x428AF, size: 0x8, addend: 0x0, symName: __ZNSt3__19allocatorIN7rocksdb6DbPathEE10deallocateB8ne180100EPS2_m, symObjAddr: 0x76C0, symBinAddr: 0x100008DC0, symSize: 0x40 }
  - { offset: 0x428F1, size: 0x8, addend: 0x0, symName: __ZNKSt3__16vectorIN7rocksdb6DbPathENS_9allocatorIS2_EEE9__end_capB8ne180100Ev, symObjAddr: 0x7700, symBinAddr: 0x100008E00, symSize: 0x28 }
  - { offset: 0x42917, size: 0x8, addend: 0x0, symName: __ZNKSt3__117__compressed_pairIPN7rocksdb6DbPathENS_9allocatorIS2_EEE5firstB8ne180100Ev, symObjAddr: 0x7728, symBinAddr: 0x100008E28, symSize: 0x24 }
  - { offset: 0x4293D, size: 0x8, addend: 0x0, symName: __ZNKSt3__122__compressed_pair_elemIPN7rocksdb6DbPathELi0ELb0EE5__getB8ne180100Ev, symObjAddr: 0x774C, symBinAddr: 0x100008E4C, symSize: 0x14 }
  - { offset: 0x42963, size: 0x8, addend: 0x0, symName: __ZNSt3__110shared_ptrIN7rocksdb21ConcurrentTaskLimiterEEC2B8ne180100ERKS3_, symObjAddr: 0x7760, symBinAddr: 0x100008E60, symSize: 0x68 }
  - { offset: 0x4299C, size: 0x8, addend: 0x0, symName: __ZNSt3__110shared_ptrIN7rocksdb21SstPartitionerFactoryEEC2B8ne180100ERKS3_, symObjAddr: 0x77C8, symBinAddr: 0x100008EC8, symSize: 0x68 }
  - { offset: 0x429D5, size: 0x8, addend: 0x0, symName: __ZNSt3__110shared_ptrIN7rocksdb12TableFactoryEED2B8ne180100Ev, symObjAddr: 0x7830, symBinAddr: 0x100008F30, symSize: 0x4C }
  - { offset: 0x429FF, size: 0x8, addend: 0x0, symName: __ZNSt3__110shared_ptrIKN7rocksdb14SliceTransformEED2B8ne180100Ev, symObjAddr: 0x787C, symBinAddr: 0x100008F7C, symSize: 0x4C }
  - { offset: 0x42A29, size: 0x8, addend: 0x0, symName: __ZNSt3__110shared_ptrIN7rocksdb23CompactionFilterFactoryEED2B8ne180100Ev, symObjAddr: 0x78C8, symBinAddr: 0x100008FC8, symSize: 0x4C }
  - { offset: 0x42A53, size: 0x8, addend: 0x0, symName: __ZNSt3__110shared_ptrIN7rocksdb13MergeOperatorEED2B8ne180100Ev, symObjAddr: 0x7914, symBinAddr: 0x100009014, symSize: 0x4C }
  - { offset: 0x42A7D, size: 0x8, addend: 0x0, symName: __ZNSt3__110shared_ptrIN7rocksdb5CacheEED1B8ne180100Ev, symObjAddr: 0x7960, symBinAddr: 0x100009060, symSize: 0x2C }
  - { offset: 0x42AA7, size: 0x8, addend: 0x0, symName: __ZNSt3__16vectorINS_10shared_ptrIN7rocksdb31TablePropertiesCollectorFactoryEEENS_9allocatorIS4_EEED1B8ne180100Ev, symObjAddr: 0x798C, symBinAddr: 0x10000908C, symSize: 0x2C }
  - { offset: 0x42AD1, size: 0x8, addend: 0x0, symName: __ZNSt3__110shared_ptrIN7rocksdb5CacheEED2B8ne180100Ev, symObjAddr: 0x79B8, symBinAddr: 0x1000090B8, symSize: 0x4C }
  - { offset: 0x42AFB, size: 0x8, addend: 0x0, symName: __ZNSt3__16vectorINS_10shared_ptrIN7rocksdb31TablePropertiesCollectorFactoryEEENS_9allocatorIS4_EEED2B8ne180100Ev, symObjAddr: 0x7A04, symBinAddr: 0x100009104, symSize: 0x40 }
  - { offset: 0x42B25, size: 0x8, addend: 0x0, symName: __ZN7rocksdb22ColumnFamilyDescriptorD2Ev, symObjAddr: 0x7A44, symBinAddr: 0x100009144, symSize: 0x38 }
  - { offset: 0x42B51, size: 0x8, addend: 0x0, symName: __ZN7rocksdb19ColumnFamilyOptionsD2Ev, symObjAddr: 0x7A7C, symBinAddr: 0x10000917C, symSize: 0x80 }
  - { offset: 0x42B7D, size: 0x8, addend: 0x0, symName: __ZNSt3__110shared_ptrIN7rocksdb21SstPartitionerFactoryEED1B8ne180100Ev, symObjAddr: 0x7AFC, symBinAddr: 0x1000091FC, symSize: 0x2C }
  - { offset: 0x42BA7, size: 0x8, addend: 0x0, symName: __ZNSt3__110shared_ptrIN7rocksdb21ConcurrentTaskLimiterEED1B8ne180100Ev, symObjAddr: 0x7B28, symBinAddr: 0x100009228, symSize: 0x2C }
  - { offset: 0x42BD1, size: 0x8, addend: 0x0, symName: __ZNSt3__16vectorIN7rocksdb6DbPathENS_9allocatorIS2_EEED1B8ne180100Ev, symObjAddr: 0x7B54, symBinAddr: 0x100009254, symSize: 0x2C }
  - { offset: 0x42BFB, size: 0x8, addend: 0x0, symName: __ZNSt3__110shared_ptrIN7rocksdb21SstPartitionerFactoryEED2B8ne180100Ev, symObjAddr: 0x7B80, symBinAddr: 0x100009280, symSize: 0x4C }
  - { offset: 0x42C25, size: 0x8, addend: 0x0, symName: __ZNSt3__110shared_ptrIN7rocksdb21ConcurrentTaskLimiterEED2B8ne180100Ev, symObjAddr: 0x7BCC, symBinAddr: 0x1000092CC, symSize: 0x4C }
  - { offset: 0x42C4F, size: 0x8, addend: 0x0, symName: __ZNSt3__16vectorIN7rocksdb6DbPathENS_9allocatorIS2_EEED2B8ne180100Ev, symObjAddr: 0x7C18, symBinAddr: 0x100009318, symSize: 0x40 }
  - { offset: 0x42C79, size: 0x8, addend: 0x0, symName: __ZN7rocksdb7OptionsC2Ev, symObjAddr: 0x7C58, symBinAddr: 0x100009358, symSize: 0x60 }
  - { offset: 0x42CA3, size: 0x8, addend: 0x0, symName: __ZN7rocksdb9DBOptionsD2Ev, symObjAddr: 0x7CB8, symBinAddr: 0x1000093B8, symSize: 0xCC }
  - { offset: 0x42CD0, size: 0x8, addend: 0x0, symName: __ZNSt3__110shared_ptrIN7rocksdb17CompactionServiceEED1B8ne180100Ev, symObjAddr: 0x7D84, symBinAddr: 0x100009484, symSize: 0x2C }
  - { offset: 0x42CFA, size: 0x8, addend: 0x0, symName: __ZNSt3__110shared_ptrIN7rocksdb22FileChecksumGenFactoryEED1B8ne180100Ev, symObjAddr: 0x7DB0, symBinAddr: 0x1000094B0, symSize: 0x2C }
  - { offset: 0x42D24, size: 0x8, addend: 0x0, symName: __ZNSt3__16vectorINS_10shared_ptrIN7rocksdb13EventListenerEEENS_9allocatorIS4_EEED1B8ne180100Ev, symObjAddr: 0x7DDC, symBinAddr: 0x1000094DC, symSize: 0x2C }
  - { offset: 0x42D4E, size: 0x8, addend: 0x0, symName: __ZNSt3__110shared_ptrIN7rocksdb18WriteBufferManagerEED1B8ne180100Ev, symObjAddr: 0x7E08, symBinAddr: 0x100009508, symSize: 0x2C }
  - { offset: 0x42D78, size: 0x8, addend: 0x0, symName: __ZNSt3__110shared_ptrIN7rocksdb10StatisticsEED1B8ne180100Ev, symObjAddr: 0x7E34, symBinAddr: 0x100009534, symSize: 0x2C }
  - { offset: 0x42DA2, size: 0x8, addend: 0x0, symName: __ZNSt3__110shared_ptrIN7rocksdb6LoggerEED1B8ne180100Ev, symObjAddr: 0x7E60, symBinAddr: 0x100009560, symSize: 0x2C }
  - { offset: 0x42DCC, size: 0x8, addend: 0x0, symName: __ZNSt3__110shared_ptrIN7rocksdb14SstFileManagerEED1B8ne180100Ev, symObjAddr: 0x7E8C, symBinAddr: 0x10000958C, symSize: 0x2C }
  - { offset: 0x42DF6, size: 0x8, addend: 0x0, symName: __ZNSt3__110shared_ptrIN7rocksdb11RateLimiterEED1B8ne180100Ev, symObjAddr: 0x7EB8, symBinAddr: 0x1000095B8, symSize: 0x2C }
  - { offset: 0x42E20, size: 0x8, addend: 0x0, symName: __ZNSt3__110shared_ptrIN7rocksdb17CompactionServiceEED2B8ne180100Ev, symObjAddr: 0x7EE4, symBinAddr: 0x1000095E4, symSize: 0x4C }
  - { offset: 0x42E4A, size: 0x8, addend: 0x0, symName: __ZNSt3__110shared_ptrIN7rocksdb22FileChecksumGenFactoryEED2B8ne180100Ev, symObjAddr: 0x7F30, symBinAddr: 0x100009630, symSize: 0x4C }
  - { offset: 0x42E74, size: 0x8, addend: 0x0, symName: __ZNSt3__16vectorINS_10shared_ptrIN7rocksdb13EventListenerEEENS_9allocatorIS4_EEED2B8ne180100Ev, symObjAddr: 0x7F7C, symBinAddr: 0x10000967C, symSize: 0x44 }
  - { offset: 0x42E9E, size: 0x8, addend: 0x0, symName: __ZNSt3__16vectorINS_10shared_ptrIN7rocksdb13EventListenerEEENS_9allocatorIS4_EEE16__destroy_vectorC1B8ne180100ERS7_, symObjAddr: 0x7FC0, symBinAddr: 0x1000096C0, symSize: 0x34 }
  - { offset: 0x42ED7, size: 0x8, addend: 0x0, symName: __ZNSt3__16vectorINS_10shared_ptrIN7rocksdb13EventListenerEEENS_9allocatorIS4_EEE16__destroy_vectorclB8ne180100Ev, symObjAddr: 0x7FF4, symBinAddr: 0x1000096F4, symSize: 0x88 }
  - { offset: 0x42EFD, size: 0x8, addend: 0x0, symName: __ZNSt3__16vectorINS_10shared_ptrIN7rocksdb13EventListenerEEENS_9allocatorIS4_EEE16__destroy_vectorC2B8ne180100ERS7_, symObjAddr: 0x807C, symBinAddr: 0x10000977C, symSize: 0x20 }
  - { offset: 0x42F36, size: 0x8, addend: 0x0, symName: __ZNSt3__16vectorINS_10shared_ptrIN7rocksdb13EventListenerEEENS_9allocatorIS4_EEE7__clearB8ne180100Ev, symObjAddr: 0x809C, symBinAddr: 0x10000979C, symSize: 0x28 }
  - { offset: 0x42F5C, size: 0x8, addend: 0x0, symName: __ZNKSt3__16vectorINS_10shared_ptrIN7rocksdb13EventListenerEEENS_9allocatorIS4_EEE17__annotate_deleteB8ne180100Ev, symObjAddr: 0x80C4, symBinAddr: 0x1000097C4, symSize: 0x10 }
  - { offset: 0x42F82, size: 0x8, addend: 0x0, symName: __ZNSt3__116allocator_traitsINS_9allocatorINS_10shared_ptrIN7rocksdb13EventListenerEEEEEE10deallocateB8ne180100ERS6_PS5_m, symObjAddr: 0x80D4, symBinAddr: 0x1000097D4, symSize: 0x34 }
  - { offset: 0x42FC4, size: 0x8, addend: 0x0, symName: __ZNSt3__16vectorINS_10shared_ptrIN7rocksdb13EventListenerEEENS_9allocatorIS4_EEE7__allocB8ne180100Ev, symObjAddr: 0x8108, symBinAddr: 0x100009808, symSize: 0x28 }
  - { offset: 0x42FEA, size: 0x8, addend: 0x0, symName: __ZNKSt3__16vectorINS_10shared_ptrIN7rocksdb13EventListenerEEENS_9allocatorIS4_EEE8capacityB8ne180100Ev, symObjAddr: 0x8130, symBinAddr: 0x100009830, symSize: 0x40 }
  - { offset: 0x43010, size: 0x8, addend: 0x0, symName: __ZNSt3__16vectorINS_10shared_ptrIN7rocksdb13EventListenerEEENS_9allocatorIS4_EEE22__base_destruct_at_endB8ne180100EPS4_, symObjAddr: 0x8170, symBinAddr: 0x100009870, symSize: 0x88 }
  - { offset: 0x43054, size: 0x8, addend: 0x0, symName: __ZNSt3__116allocator_traitsINS_9allocatorINS_10shared_ptrIN7rocksdb13EventListenerEEEEEE7destroyB8ne180100IS5_vEEvRS6_PT_, symObjAddr: 0x81F8, symBinAddr: 0x1000098F8, symSize: 0x2C }
  - { offset: 0x43091, size: 0x8, addend: 0x0, symName: __ZNSt3__19allocatorINS_10shared_ptrIN7rocksdb13EventListenerEEEE7destroyB8ne180100EPS4_, symObjAddr: 0x8238, symBinAddr: 0x100009938, symSize: 0x28 }
  - { offset: 0x430C5, size: 0x8, addend: 0x0, symName: __ZNSt3__110shared_ptrIN7rocksdb13EventListenerEED1B8ne180100Ev, symObjAddr: 0x8260, symBinAddr: 0x100009960, symSize: 0x2C }
  - { offset: 0x430EF, size: 0x8, addend: 0x0, symName: __ZNSt3__110shared_ptrIN7rocksdb13EventListenerEED2B8ne180100Ev, symObjAddr: 0x828C, symBinAddr: 0x10000998C, symSize: 0x4C }
  - { offset: 0x43119, size: 0x8, addend: 0x0, symName: __ZNSt3__19allocatorINS_10shared_ptrIN7rocksdb13EventListenerEEEE10deallocateB8ne180100EPS4_m, symObjAddr: 0x82D8, symBinAddr: 0x1000099D8, symSize: 0x40 }
  - { offset: 0x4315B, size: 0x8, addend: 0x0, symName: __ZNSt3__117__compressed_pairIPNS_10shared_ptrIN7rocksdb13EventListenerEEENS_9allocatorIS4_EEE6secondB8ne180100Ev, symObjAddr: 0x8318, symBinAddr: 0x100009A18, symSize: 0x24 }
  - { offset: 0x43181, size: 0x8, addend: 0x0, symName: __ZNSt3__122__compressed_pair_elemINS_9allocatorINS_10shared_ptrIN7rocksdb13EventListenerEEEEELi1ELb1EE5__getB8ne180100Ev, symObjAddr: 0x833C, symBinAddr: 0x100009A3C, symSize: 0x14 }
  - { offset: 0x431A7, size: 0x8, addend: 0x0, symName: __ZNKSt3__16vectorINS_10shared_ptrIN7rocksdb13EventListenerEEENS_9allocatorIS4_EEE9__end_capB8ne180100Ev, symObjAddr: 0x8350, symBinAddr: 0x100009A50, symSize: 0x28 }
  - { offset: 0x431CD, size: 0x8, addend: 0x0, symName: __ZNKSt3__117__compressed_pairIPNS_10shared_ptrIN7rocksdb13EventListenerEEENS_9allocatorIS4_EEE5firstB8ne180100Ev, symObjAddr: 0x8378, symBinAddr: 0x100009A78, symSize: 0x24 }
  - { offset: 0x431F3, size: 0x8, addend: 0x0, symName: __ZNKSt3__122__compressed_pair_elemIPNS_10shared_ptrIN7rocksdb13EventListenerEEELi0ELb0EE5__getB8ne180100Ev, symObjAddr: 0x839C, symBinAddr: 0x100009A9C, symSize: 0x14 }
  - { offset: 0x43219, size: 0x8, addend: 0x0, symName: __ZNSt3__110shared_ptrIN7rocksdb18WriteBufferManagerEED2B8ne180100Ev, symObjAddr: 0x83B0, symBinAddr: 0x100009AB0, symSize: 0x4C }
  - { offset: 0x43243, size: 0x8, addend: 0x0, symName: __ZNSt3__110shared_ptrIN7rocksdb10StatisticsEED2B8ne180100Ev, symObjAddr: 0x83FC, symBinAddr: 0x100009AFC, symSize: 0x4C }
  - { offset: 0x4326D, size: 0x8, addend: 0x0, symName: __ZNSt3__110shared_ptrIN7rocksdb6LoggerEED2B8ne180100Ev, symObjAddr: 0x8448, symBinAddr: 0x100009B48, symSize: 0x4C }
  - { offset: 0x43297, size: 0x8, addend: 0x0, symName: __ZNSt3__110shared_ptrIN7rocksdb14SstFileManagerEED2B8ne180100Ev, symObjAddr: 0x8494, symBinAddr: 0x100009B94, symSize: 0x4C }
  - { offset: 0x432C1, size: 0x8, addend: 0x0, symName: __ZNSt3__110shared_ptrIN7rocksdb11RateLimiterEED2B8ne180100Ev, symObjAddr: 0x84E0, symBinAddr: 0x100009BE0, symSize: 0x4C }
  - { offset: 0x432EB, size: 0x8, addend: 0x0, symName: __ZN7rocksdb19BackupEngineOptionsC2ERKNSt3__112basic_stringIcNS1_11char_traitsIcEENS1_9allocatorIcEEEEPNS_3EnvEbPNS_6LoggerEbbbyyiyiNS0_16ShareFilesNamingE, symObjAddr: 0x852C, symBinAddr: 0x100009C2C, symSize: 0x214 }
  - { offset: 0x433CD, size: 0x8, addend: 0x0, symName: __ZNSt3__110shared_ptrIN7rocksdb11RateLimiterEEC1B8ne180100EDn, symObjAddr: 0x8740, symBinAddr: 0x100009E40, symSize: 0x34 }
  - { offset: 0x43402, size: 0x8, addend: 0x0, symName: __ZNSt3__110shared_ptrIN7rocksdb11RateLimiterEEC2B8ne180100EDn, symObjAddr: 0x8774, symBinAddr: 0x100009E74, symSize: 0x20 }
  - { offset: 0x43437, size: 0x8, addend: 0x0, symName: __ZNK7rocksdb6Status11MarkCheckedEv, symObjAddr: 0x8794, symBinAddr: 0x100009E94, symSize: 0x10 }
  - { offset: 0x4345D, size: 0x8, addend: 0x0, symName: __ZNK7rocksdb6Status9MustCheckEv, symObjAddr: 0x87A4, symBinAddr: 0x100009EA4, symSize: 0x10 }
  - { offset: 0x43483, size: 0x8, addend: 0x0, symName: __ZNSt3__110unique_ptrIA_KcNS_14default_deleteIS2_EEEaSB8ne180100EOS5_, symObjAddr: 0x87B4, symBinAddr: 0x100009EB4, symSize: 0x50 }
  - { offset: 0x434B8, size: 0x8, addend: 0x0, symName: __ZNSt3__110unique_ptrIA_KcNS_14default_deleteIS2_EEE5resetB8ne180100IPS1_TnNS_9enable_ifIXsr28_CheckArrayPointerConversionIT_EE5valueEiE4typeELi0EEEvS9_, symObjAddr: 0x8804, symBinAddr: 0x100009F04, symSize: 0x70 }
  - { offset: 0x4350B, size: 0x8, addend: 0x0, symName: __ZNSt3__110unique_ptrIA_KcNS_14default_deleteIS2_EEE7releaseB8ne180100Ev, symObjAddr: 0x8874, symBinAddr: 0x100009F74, symSize: 0x44 }
  - { offset: 0x43540, size: 0x8, addend: 0x0, symName: __ZNSt3__110unique_ptrIA_KcNS_14default_deleteIS2_EEE11get_deleterB8ne180100Ev, symObjAddr: 0x88B8, symBinAddr: 0x100009FB8, symSize: 0x24 }
  - { offset: 0x43566, size: 0x8, addend: 0x0, symName: __ZNSt3__117__compressed_pairIPKcNS_14default_deleteIA_S1_EEE6secondB8ne180100Ev, symObjAddr: 0x88DC, symBinAddr: 0x100009FDC, symSize: 0x24 }
  - { offset: 0x4358C, size: 0x8, addend: 0x0, symName: __ZNSt3__117__compressed_pairIPKcNS_14default_deleteIA_S1_EEE5firstB8ne180100Ev, symObjAddr: 0x8900, symBinAddr: 0x10000A000, symSize: 0x24 }
  - { offset: 0x435B8, size: 0x8, addend: 0x0, symName: __ZNKSt3__114default_deleteIA_KcEclB8ne180100IS1_EENS3_20_EnableIfConvertibleIT_E4typeEPS6_, symObjAddr: 0x8924, symBinAddr: 0x10000A024, symSize: 0x3C }
  - { offset: 0x435F5, size: 0x8, addend: 0x0, symName: __ZNSt3__122__compressed_pair_elemIPKcLi0ELb0EE5__getB8ne180100Ev, symObjAddr: 0x8960, symBinAddr: 0x10000A060, symSize: 0x14 }
  - { offset: 0x4361B, size: 0x8, addend: 0x0, symName: __ZNSt3__122__compressed_pair_elemINS_14default_deleteIA_KcEELi1ELb1EE5__getB8ne180100Ev, symObjAddr: 0x8974, symBinAddr: 0x10000A074, symSize: 0x14 }
  - { offset: 0x43641, size: 0x8, addend: 0x0, symName: __ZN7rocksdb8IOStatusD2Ev, symObjAddr: 0x8988, symBinAddr: 0x10000A088, symSize: 0x2C }
  - { offset: 0x4366B, size: 0x8, addend: 0x0, symName: __ZN7rocksdb6StatusD2Ev, symObjAddr: 0x89B4, symBinAddr: 0x10000A0B4, symSize: 0x30 }
  - { offset: 0x43695, size: 0x8, addend: 0x0, symName: __ZNSt3__110unique_ptrIA_KcNS_14default_deleteIS2_EEED1B8ne180100Ev, symObjAddr: 0x89E4, symBinAddr: 0x10000A0E4, symSize: 0x2C }
  - { offset: 0x436BF, size: 0x8, addend: 0x0, symName: __ZNSt3__110unique_ptrIA_KcNS_14default_deleteIS2_EEED2B8ne180100Ev, symObjAddr: 0x8A10, symBinAddr: 0x10000A110, symSize: 0x30 }
  - { offset: 0x436E9, size: 0x8, addend: 0x0, symName: __ZNSt3__110unique_ptrIA_KcNS_14default_deleteIS2_EEE5resetB8ne180100EDn, symObjAddr: 0x8A40, symBinAddr: 0x10000A140, symSize: 0x64 }
  - { offset: 0x43729, size: 0x8, addend: 0x0, symName: __ZN7rocksdb19BackupEngineOptionsD2Ev, symObjAddr: 0x8AA4, symBinAddr: 0x10000A1A4, symSize: 0x44 }
  - { offset: 0x43755, size: 0x8, addend: 0x0, symName: __ZNK7rocksdb6Status4codeEv, symObjAddr: 0x8AE8, symBinAddr: 0x10000A1E8, symSize: 0x30 }
  - { offset: 0x4377B, size: 0x8, addend: 0x0, symName: __ZN7rocksdb7OptionsD2Ev, symObjAddr: 0x8B18, symBinAddr: 0x10000A218, symSize: 0x38 }
  - { offset: 0x437A8, size: 0x8, addend: 0x0, symName: __ZNSt3__112basic_stringIcNS_11char_traitsIcEENS_9allocatorIcEEEC2B8ne180100ILi0EEEPKc, symObjAddr: 0x8B50, symBinAddr: 0x10000A250, symSize: 0x58 }
  - { offset: 0x437ED, size: 0x8, addend: 0x0, symName: __ZNSt3__117__compressed_pairINS_12basic_stringIcNS_11char_traitsIcEENS_9allocatorIcEEE5__repES5_EC1B8ne180100INS_18__default_init_tagESA_EEOT_OT0_, symObjAddr: 0x8BA8, symBinAddr: 0x10000A2A8, symSize: 0x3C }
  - { offset: 0x43845, size: 0x8, addend: 0x0, symName: __ZNSt3__111char_traitsIcE6lengthB8ne180100EPKc, symObjAddr: 0x8BE4, symBinAddr: 0x10000A2E4, symSize: 0x34 }
  - { offset: 0x43868, size: 0x8, addend: 0x0, symName: __ZNSt3__117__compressed_pairINS_12basic_stringIcNS_11char_traitsIcEENS_9allocatorIcEEE5__repES5_EC2B8ne180100INS_18__default_init_tagESA_EEOT_OT0_, symObjAddr: 0x8C18, symBinAddr: 0x10000A318, symSize: 0x3C }
  - { offset: 0x438C0, size: 0x8, addend: 0x0, symName: __ZNSt3__122__compressed_pair_elemINS_12basic_stringIcNS_11char_traitsIcEENS_9allocatorIcEEE5__repELi0ELb0EEC2B8ne180100ENS_18__default_init_tagE, symObjAddr: 0x8C54, symBinAddr: 0x10000A354, symSize: 0x14 }
  - { offset: 0x438F5, size: 0x8, addend: 0x0, symName: __ZNSt3__122__compressed_pair_elemINS_9allocatorIcEELi1ELb1EEC2B8ne180100ENS_18__default_init_tagE, symObjAddr: 0x8C68, symBinAddr: 0x10000A368, symSize: 0x2C }
  - { offset: 0x4392A, size: 0x8, addend: 0x0, symName: __ZNSt3__19allocatorIcEC2B8ne180100Ev, symObjAddr: 0x8C94, symBinAddr: 0x10000A394, symSize: 0x2C }
  - { offset: 0x43954, size: 0x8, addend: 0x0, symName: __ZNSt3__116__non_trivial_ifILb1ENS_9allocatorIcEEEC2B8ne180100Ev, symObjAddr: 0x8CC0, symBinAddr: 0x10000A3C0, symSize: 0x14 }
  - { offset: 0x4397E, size: 0x8, addend: 0x0, symName: __ZNSt3__16vectorINS_12basic_stringIcNS_11char_traitsIcEENS_9allocatorIcEEEENS4_IS6_EEED2B8ne180100Ev, symObjAddr: 0x8CF8, symBinAddr: 0x10000A3F8, symSize: 0x44 }
  - { offset: 0x439A8, size: 0x8, addend: 0x0, symName: __ZNSt3__16vectorINS_12basic_stringIcNS_11char_traitsIcEENS_9allocatorIcEEEENS4_IS6_EEE16__destroy_vectorC1B8ne180100ERS8_, symObjAddr: 0x8D3C, symBinAddr: 0x10000A43C, symSize: 0x34 }
  - { offset: 0x439E1, size: 0x8, addend: 0x0, symName: __ZNSt3__16vectorINS_12basic_stringIcNS_11char_traitsIcEENS_9allocatorIcEEEENS4_IS6_EEE16__destroy_vectorclB8ne180100Ev, symObjAddr: 0x8D70, symBinAddr: 0x10000A470, symSize: 0x88 }
  - { offset: 0x43A07, size: 0x8, addend: 0x0, symName: __ZNSt3__16vectorINS_12basic_stringIcNS_11char_traitsIcEENS_9allocatorIcEEEENS4_IS6_EEE16__destroy_vectorC2B8ne180100ERS8_, symObjAddr: 0x8DF8, symBinAddr: 0x10000A4F8, symSize: 0x20 }
  - { offset: 0x43A40, size: 0x8, addend: 0x0, symName: __ZNSt3__16vectorINS_12basic_stringIcNS_11char_traitsIcEENS_9allocatorIcEEEENS4_IS6_EEE7__clearB8ne180100Ev, symObjAddr: 0x8E18, symBinAddr: 0x10000A518, symSize: 0x28 }
  - { offset: 0x43A66, size: 0x8, addend: 0x0, symName: __ZNKSt3__16vectorINS_12basic_stringIcNS_11char_traitsIcEENS_9allocatorIcEEEENS4_IS6_EEE17__annotate_deleteB8ne180100Ev, symObjAddr: 0x8E40, symBinAddr: 0x10000A540, symSize: 0x10 }
  - { offset: 0x43A8C, size: 0x8, addend: 0x0, symName: __ZNSt3__116allocator_traitsINS_9allocatorINS_12basic_stringIcNS_11char_traitsIcEENS1_IcEEEEEEE10deallocateB8ne180100ERS7_PS6_m, symObjAddr: 0x8E50, symBinAddr: 0x10000A550, symSize: 0x34 }
  - { offset: 0x43ACE, size: 0x8, addend: 0x0, symName: __ZNSt3__16vectorINS_12basic_stringIcNS_11char_traitsIcEENS_9allocatorIcEEEENS4_IS6_EEE7__allocB8ne180100Ev, symObjAddr: 0x8E84, symBinAddr: 0x10000A584, symSize: 0x28 }
  - { offset: 0x43AF4, size: 0x8, addend: 0x0, symName: __ZNKSt3__16vectorINS_12basic_stringIcNS_11char_traitsIcEENS_9allocatorIcEEEENS4_IS6_EEE8capacityB8ne180100Ev, symObjAddr: 0x8EAC, symBinAddr: 0x10000A5AC, symSize: 0x40 }
  - { offset: 0x43B1A, size: 0x8, addend: 0x0, symName: __ZNSt3__16vectorINS_12basic_stringIcNS_11char_traitsIcEENS_9allocatorIcEEEENS4_IS6_EEE22__base_destruct_at_endB8ne180100EPS6_, symObjAddr: 0x8EEC, symBinAddr: 0x10000A5EC, symSize: 0x88 }
  - { offset: 0x43B5E, size: 0x8, addend: 0x0, symName: __ZNSt3__116allocator_traitsINS_9allocatorINS_12basic_stringIcNS_11char_traitsIcEENS1_IcEEEEEEE7destroyB8ne180100IS6_vEEvRS7_PT_, symObjAddr: 0x8F74, symBinAddr: 0x10000A674, symSize: 0x2C }
  - { offset: 0x43B9B, size: 0x8, addend: 0x0, symName: __ZNSt3__19allocatorINS_12basic_stringIcNS_11char_traitsIcEENS0_IcEEEEE7destroyB8ne180100EPS5_, symObjAddr: 0x8FB4, symBinAddr: 0x10000A6B4, symSize: 0x28 }
  - { offset: 0x43BCF, size: 0x8, addend: 0x0, symName: __ZNSt3__19allocatorINS_12basic_stringIcNS_11char_traitsIcEENS0_IcEEEEE10deallocateB8ne180100EPS5_m, symObjAddr: 0x8FDC, symBinAddr: 0x10000A6DC, symSize: 0x44 }
  - { offset: 0x43C11, size: 0x8, addend: 0x0, symName: __ZNSt3__117__compressed_pairIPNS_12basic_stringIcNS_11char_traitsIcEENS_9allocatorIcEEEENS4_IS6_EEE6secondB8ne180100Ev, symObjAddr: 0x9020, symBinAddr: 0x10000A720, symSize: 0x24 }
  - { offset: 0x43C37, size: 0x8, addend: 0x0, symName: __ZNSt3__122__compressed_pair_elemINS_9allocatorINS_12basic_stringIcNS_11char_traitsIcEENS1_IcEEEEEELi1ELb1EE5__getB8ne180100Ev, symObjAddr: 0x9044, symBinAddr: 0x10000A744, symSize: 0x14 }
  - { offset: 0x43C5D, size: 0x8, addend: 0x0, symName: __ZNKSt3__16vectorINS_12basic_stringIcNS_11char_traitsIcEENS_9allocatorIcEEEENS4_IS6_EEE9__end_capB8ne180100Ev, symObjAddr: 0x9058, symBinAddr: 0x10000A758, symSize: 0x28 }
  - { offset: 0x43C83, size: 0x8, addend: 0x0, symName: __ZNKSt3__117__compressed_pairIPNS_12basic_stringIcNS_11char_traitsIcEENS_9allocatorIcEEEENS4_IS6_EEE5firstB8ne180100Ev, symObjAddr: 0x9080, symBinAddr: 0x10000A780, symSize: 0x24 }
  - { offset: 0x43CA9, size: 0x8, addend: 0x0, symName: __ZNKSt3__122__compressed_pair_elemIPNS_12basic_stringIcNS_11char_traitsIcEENS_9allocatorIcEEEELi0ELb0EE5__getB8ne180100Ev, symObjAddr: 0x90A4, symBinAddr: 0x10000A7A4, symSize: 0x14 }
  - { offset: 0x43CCF, size: 0x8, addend: 0x0, symName: __ZNSt3__16vectorIPN7rocksdb18ColumnFamilyHandleENS_9allocatorIS3_EEED2B8ne180100Ev, symObjAddr: 0x90B8, symBinAddr: 0x10000A7B8, symSize: 0x44 }
  - { offset: 0x43CF9, size: 0x8, addend: 0x0, symName: __ZNSt3__16vectorIPN7rocksdb18ColumnFamilyHandleENS_9allocatorIS3_EEE16__destroy_vectorC1B8ne180100ERS6_, symObjAddr: 0x90FC, symBinAddr: 0x10000A7FC, symSize: 0x34 }
  - { offset: 0x43D32, size: 0x8, addend: 0x0, symName: __ZNSt3__16vectorIPN7rocksdb18ColumnFamilyHandleENS_9allocatorIS3_EEE16__destroy_vectorclB8ne180100Ev, symObjAddr: 0x9130, symBinAddr: 0x10000A830, symSize: 0x88 }
  - { offset: 0x43D58, size: 0x8, addend: 0x0, symName: __ZNSt3__16vectorIPN7rocksdb18ColumnFamilyHandleENS_9allocatorIS3_EEE16__destroy_vectorC2B8ne180100ERS6_, symObjAddr: 0x91B8, symBinAddr: 0x10000A8B8, symSize: 0x20 }
  - { offset: 0x43D91, size: 0x8, addend: 0x0, symName: __ZNSt3__16vectorIPN7rocksdb18ColumnFamilyHandleENS_9allocatorIS3_EEE7__clearB8ne180100Ev, symObjAddr: 0x91D8, symBinAddr: 0x10000A8D8, symSize: 0x28 }
  - { offset: 0x43DB7, size: 0x8, addend: 0x0, symName: __ZNKSt3__16vectorIPN7rocksdb18ColumnFamilyHandleENS_9allocatorIS3_EEE17__annotate_deleteB8ne180100Ev, symObjAddr: 0x9200, symBinAddr: 0x10000A900, symSize: 0x10 }
  - { offset: 0x43DDD, size: 0x8, addend: 0x0, symName: __ZNSt3__116allocator_traitsINS_9allocatorIPN7rocksdb18ColumnFamilyHandleEEEE10deallocateB8ne180100ERS5_PS4_m, symObjAddr: 0x9210, symBinAddr: 0x10000A910, symSize: 0x34 }
  - { offset: 0x43E1F, size: 0x8, addend: 0x0, symName: __ZNSt3__16vectorIPN7rocksdb18ColumnFamilyHandleENS_9allocatorIS3_EEE7__allocB8ne180100Ev, symObjAddr: 0x9244, symBinAddr: 0x10000A944, symSize: 0x28 }
  - { offset: 0x43E45, size: 0x8, addend: 0x0, symName: __ZNKSt3__16vectorIPN7rocksdb18ColumnFamilyHandleENS_9allocatorIS3_EEE8capacityB8ne180100Ev, symObjAddr: 0x926C, symBinAddr: 0x10000A96C, symSize: 0x40 }
  - { offset: 0x43E6B, size: 0x8, addend: 0x0, symName: __ZNSt3__16vectorIPN7rocksdb18ColumnFamilyHandleENS_9allocatorIS3_EEE22__base_destruct_at_endB8ne180100EPS3_, symObjAddr: 0x92AC, symBinAddr: 0x10000A9AC, symSize: 0x88 }
  - { offset: 0x43EAF, size: 0x8, addend: 0x0, symName: __ZNSt3__116allocator_traitsINS_9allocatorIPN7rocksdb18ColumnFamilyHandleEEEE7destroyB8ne180100IS4_vEEvRS5_PT_, symObjAddr: 0x9334, symBinAddr: 0x10000AA34, symSize: 0x2C }
  - { offset: 0x43EEC, size: 0x8, addend: 0x0, symName: __ZNSt3__19allocatorIPN7rocksdb18ColumnFamilyHandleEE7destroyB8ne180100EPS3_, symObjAddr: 0x9374, symBinAddr: 0x10000AA74, symSize: 0x14 }
  - { offset: 0x43F20, size: 0x8, addend: 0x0, symName: __ZNSt3__19allocatorIPN7rocksdb18ColumnFamilyHandleEE10deallocateB8ne180100EPS3_m, symObjAddr: 0x9388, symBinAddr: 0x10000AA88, symSize: 0x40 }
  - { offset: 0x43F62, size: 0x8, addend: 0x0, symName: __ZNSt3__117__compressed_pairIPPN7rocksdb18ColumnFamilyHandleENS_9allocatorIS3_EEE6secondB8ne180100Ev, symObjAddr: 0x93C8, symBinAddr: 0x10000AAC8, symSize: 0x24 }
  - { offset: 0x43F88, size: 0x8, addend: 0x0, symName: __ZNSt3__122__compressed_pair_elemINS_9allocatorIPN7rocksdb18ColumnFamilyHandleEEELi1ELb1EE5__getB8ne180100Ev, symObjAddr: 0x93EC, symBinAddr: 0x10000AAEC, symSize: 0x14 }
  - { offset: 0x43FAE, size: 0x8, addend: 0x0, symName: __ZNKSt3__16vectorIPN7rocksdb18ColumnFamilyHandleENS_9allocatorIS3_EEE9__end_capB8ne180100Ev, symObjAddr: 0x9400, symBinAddr: 0x10000AB00, symSize: 0x28 }
  - { offset: 0x43FD4, size: 0x8, addend: 0x0, symName: __ZNKSt3__117__compressed_pairIPPN7rocksdb18ColumnFamilyHandleENS_9allocatorIS3_EEE5firstB8ne180100Ev, symObjAddr: 0x9428, symBinAddr: 0x10000AB28, symSize: 0x24 }
  - { offset: 0x43FFA, size: 0x8, addend: 0x0, symName: __ZNKSt3__122__compressed_pair_elemIPPN7rocksdb18ColumnFamilyHandleELi0ELb0EE5__getB8ne180100Ev, symObjAddr: 0x944C, symBinAddr: 0x10000AB4C, symSize: 0x14 }
  - { offset: 0x44020, size: 0x8, addend: 0x0, symName: __ZNSt3__16vectorINS_12basic_stringIcNS_11char_traitsIcEENS_9allocatorIcEEEENS4_IS6_EEEC2B8ne180100Ev, symObjAddr: 0x9460, symBinAddr: 0x10000AB60, symSize: 0x4C }
  - { offset: 0x4404A, size: 0x8, addend: 0x0, symName: __ZNSt3__117__compressed_pairIPNS_12basic_stringIcNS_11char_traitsIcEENS_9allocatorIcEEEENS4_IS6_EEEC1B8ne180100IDnNS_18__default_init_tagEEEOT_OT0_, symObjAddr: 0x94AC, symBinAddr: 0x10000ABAC, symSize: 0x3C }
  - { offset: 0x440A2, size: 0x8, addend: 0x0, symName: __ZNSt3__117__compressed_pairIPNS_12basic_stringIcNS_11char_traitsIcEENS_9allocatorIcEEEENS4_IS6_EEEC2B8ne180100IDnNS_18__default_init_tagEEEOT_OT0_, symObjAddr: 0x94E8, symBinAddr: 0x10000ABE8, symSize: 0x40 }
  - { offset: 0x440FA, size: 0x8, addend: 0x0, symName: __ZNSt3__122__compressed_pair_elemIPNS_12basic_stringIcNS_11char_traitsIcEENS_9allocatorIcEEEELi0ELb0EEC2B8ne180100IDnvEEOT_, symObjAddr: 0x9528, symBinAddr: 0x10000AC28, symSize: 0x1C }
  - { offset: 0x4413C, size: 0x8, addend: 0x0, symName: __ZNSt3__122__compressed_pair_elemINS_9allocatorINS_12basic_stringIcNS_11char_traitsIcEENS1_IcEEEEEELi1ELb1EEC2B8ne180100ENS_18__default_init_tagE, symObjAddr: 0x9544, symBinAddr: 0x10000AC44, symSize: 0x2C }
  - { offset: 0x44171, size: 0x8, addend: 0x0, symName: __ZNSt3__19allocatorINS_12basic_stringIcNS_11char_traitsIcEENS0_IcEEEEEC2B8ne180100Ev, symObjAddr: 0x9570, symBinAddr: 0x10000AC70, symSize: 0x2C }
  - { offset: 0x4419B, size: 0x8, addend: 0x0, symName: __ZNSt3__116__non_trivial_ifILb1ENS_9allocatorINS_12basic_stringIcNS_11char_traitsIcEENS1_IcEEEEEEEC2B8ne180100Ev, symObjAddr: 0x959C, symBinAddr: 0x10000AC9C, symSize: 0x14 }
  - { offset: 0x441C5, size: 0x8, addend: 0x0, symName: __ZNSt3__16vectorINS_12basic_stringIcNS_11char_traitsIcEENS_9allocatorIcEEEENS4_IS6_EEE9__end_capB8ne180100Ev, symObjAddr: 0x95B0, symBinAddr: 0x10000ACB0, symSize: 0x28 }
  - { offset: 0x441EB, size: 0x8, addend: 0x0, symName: __ZNSt3__16vectorINS_12basic_stringIcNS_11char_traitsIcEENS_9allocatorIcEEEENS4_IS6_EEE22__construct_one_at_endB8ne180100IJRKS6_EEEvDpOT_, symObjAddr: 0x95D8, symBinAddr: 0x10000ACD8, symSize: 0x90 }
  - { offset: 0x4423A, size: 0x8, addend: 0x0, symName: __ZNSt3__16vectorINS_12basic_stringIcNS_11char_traitsIcEENS_9allocatorIcEEEENS4_IS6_EEE21__push_back_slow_pathIRKS6_EEPS6_OT_, symObjAddr: 0x9668, symBinAddr: 0x10000AD68, symSize: 0xE8 }
  - { offset: 0x44296, size: 0x8, addend: 0x0, symName: __ZNSt3__117__compressed_pairIPNS_12basic_stringIcNS_11char_traitsIcEENS_9allocatorIcEEEENS4_IS6_EEE5firstB8ne180100Ev, symObjAddr: 0x9750, symBinAddr: 0x10000AE50, symSize: 0x24 }
  - { offset: 0x442BC, size: 0x8, addend: 0x0, symName: __ZNSt3__122__compressed_pair_elemIPNS_12basic_stringIcNS_11char_traitsIcEENS_9allocatorIcEEEELi0ELb0EE5__getB8ne180100Ev, symObjAddr: 0x9774, symBinAddr: 0x10000AE74, symSize: 0x14 }
  - { offset: 0x442FE, size: 0x8, addend: 0x0, symName: __ZNSt3__16vectorINS_12basic_stringIcNS_11char_traitsIcEENS_9allocatorIcEEEENS4_IS6_EEE21_ConstructTransactionC1B8ne180100ERS8_m, symObjAddr: 0x9788, symBinAddr: 0x10000AE88, symSize: 0x3C }
  - { offset: 0x44346, size: 0x8, addend: 0x0, symName: __ZNSt3__116allocator_traitsINS_9allocatorINS_12basic_stringIcNS_11char_traitsIcEENS1_IcEEEEEEE9constructB8ne180100IS6_JRKS6_EvEEvRS7_PT_DpOT0_, symObjAddr: 0x97C4, symBinAddr: 0x10000AEC4, symSize: 0x34 }
  - { offset: 0x4439D, size: 0x8, addend: 0x0, symName: __ZNSt3__16vectorINS_12basic_stringIcNS_11char_traitsIcEENS_9allocatorIcEEEENS4_IS6_EEE21_ConstructTransactionD1B8ne180100Ev, symObjAddr: 0x97F8, symBinAddr: 0x10000AEF8, symSize: 0x2C }
  - { offset: 0x443C7, size: 0x8, addend: 0x0, symName: __ZNSt3__16vectorINS_12basic_stringIcNS_11char_traitsIcEENS_9allocatorIcEEEENS4_IS6_EEE21_ConstructTransactionC2B8ne180100ERS8_m, symObjAddr: 0x9824, symBinAddr: 0x10000AF24, symSize: 0x4C }
  - { offset: 0x4440F, size: 0x8, addend: 0x0, symName: __ZNSt3__19allocatorINS_12basic_stringIcNS_11char_traitsIcEENS0_IcEEEEE9constructB8ne180100IS5_JRKS5_EEEvPT_DpOT0_, symObjAddr: 0x9870, symBinAddr: 0x10000AF70, symSize: 0x30 }
  - { offset: 0x44465, size: 0x8, addend: 0x0, symName: __ZNSt3__16vectorINS_12basic_stringIcNS_11char_traitsIcEENS_9allocatorIcEEEENS4_IS6_EEE21_ConstructTransactionD2B8ne180100Ev, symObjAddr: 0x98A0, symBinAddr: 0x10000AFA0, symSize: 0x20 }
  - { offset: 0x4448F, size: 0x8, addend: 0x0, symName: __ZNKSt3__16vectorINS_12basic_stringIcNS_11char_traitsIcEENS_9allocatorIcEEEENS4_IS6_EEE11__recommendB8ne180100Em, symObjAddr: 0x98C0, symBinAddr: 0x10000AFC0, symSize: 0xAC }
  - { offset: 0x444E4, size: 0x8, addend: 0x0, symName: __ZNKSt3__16vectorINS_12basic_stringIcNS_11char_traitsIcEENS_9allocatorIcEEEENS4_IS6_EEE4sizeB8ne180100Ev, symObjAddr: 0x996C, symBinAddr: 0x10000B06C, symSize: 0x28 }
  - { offset: 0x4450A, size: 0x8, addend: 0x0, symName: __ZNSt3__114__split_bufferINS_12basic_stringIcNS_11char_traitsIcEENS_9allocatorIcEEEERNS4_IS6_EEEC1EmmS8_, symObjAddr: 0x9994, symBinAddr: 0x10000B094, symSize: 0x44 }
  - { offset: 0x44560, size: 0x8, addend: 0x0, symName: __ZNSt3__114__split_bufferINS_12basic_stringIcNS_11char_traitsIcEENS_9allocatorIcEEEERNS4_IS6_EEED1Ev, symObjAddr: 0x9AE8, symBinAddr: 0x10000B1E8, symSize: 0x2C }
  - { offset: 0x4458C, size: 0x8, addend: 0x0, symName: __ZNKSt3__16vectorINS_12basic_stringIcNS_11char_traitsIcEENS_9allocatorIcEEEENS4_IS6_EEE8max_sizeEv, symObjAddr: 0x9B14, symBinAddr: 0x10000B214, symSize: 0x60 }
  - { offset: 0x445B4, size: 0x8, addend: 0x0, symName: __ZNKSt3__16vectorINS_12basic_stringIcNS_11char_traitsIcEENS_9allocatorIcEEEENS4_IS6_EEE20__throw_length_errorB8ne180100Ev, symObjAddr: 0x9B74, symBinAddr: 0x10000B274, symSize: 0x1C }
  - { offset: 0x445E5, size: 0x8, addend: 0x0, symName: __ZNSt3__116allocator_traitsINS_9allocatorINS_12basic_stringIcNS_11char_traitsIcEENS1_IcEEEEEEE8max_sizeB8ne180100IS7_vEEmRKS7_, symObjAddr: 0x9BBC, symBinAddr: 0x10000B2BC, symSize: 0x24 }
  - { offset: 0x44613, size: 0x8, addend: 0x0, symName: __ZNKSt3__16vectorINS_12basic_stringIcNS_11char_traitsIcEENS_9allocatorIcEEEENS4_IS6_EEE7__allocB8ne180100Ev, symObjAddr: 0x9BE0, symBinAddr: 0x10000B2E0, symSize: 0x28 }
  - { offset: 0x44639, size: 0x8, addend: 0x0, symName: __ZNKSt3__19allocatorINS_12basic_stringIcNS_11char_traitsIcEENS0_IcEEEEE8max_sizeB8ne180100Ev, symObjAddr: 0x9C08, symBinAddr: 0x10000B308, symSize: 0x18 }
  - { offset: 0x4465F, size: 0x8, addend: 0x0, symName: __ZNKSt3__117__compressed_pairIPNS_12basic_stringIcNS_11char_traitsIcEENS_9allocatorIcEEEENS4_IS6_EEE6secondB8ne180100Ev, symObjAddr: 0x9C20, symBinAddr: 0x10000B320, symSize: 0x24 }
  - { offset: 0x44685, size: 0x8, addend: 0x0, symName: __ZNKSt3__122__compressed_pair_elemINS_9allocatorINS_12basic_stringIcNS_11char_traitsIcEENS1_IcEEEEEELi1ELb1EE5__getB8ne180100Ev, symObjAddr: 0x9C44, symBinAddr: 0x10000B344, symSize: 0x14 }
  - { offset: 0x446AB, size: 0x8, addend: 0x0, symName: __ZNSt3__114__split_bufferINS_12basic_stringIcNS_11char_traitsIcEENS_9allocatorIcEEEERNS4_IS6_EEEC2EmmS8_, symObjAddr: 0x9CAC, symBinAddr: 0x10000B3AC, symSize: 0xD8 }
  - { offset: 0x4471E, size: 0x8, addend: 0x0, symName: __ZNSt3__117__compressed_pairIPNS_12basic_stringIcNS_11char_traitsIcEENS_9allocatorIcEEEERNS4_IS6_EEEC1B8ne180100IDnS9_EEOT_OT0_, symObjAddr: 0x9D84, symBinAddr: 0x10000B484, symSize: 0x3C }
  - { offset: 0x44776, size: 0x8, addend: 0x0, symName: __ZNSt3__114__split_bufferINS_12basic_stringIcNS_11char_traitsIcEENS_9allocatorIcEEEERNS4_IS6_EEE7__allocB8ne180100Ev, symObjAddr: 0x9E00, symBinAddr: 0x10000B500, symSize: 0x28 }
  - { offset: 0x4479C, size: 0x8, addend: 0x0, symName: __ZNSt3__114__split_bufferINS_12basic_stringIcNS_11char_traitsIcEENS_9allocatorIcEEEERNS4_IS6_EEE9__end_capB8ne180100Ev, symObjAddr: 0x9E28, symBinAddr: 0x10000B528, symSize: 0x28 }
  - { offset: 0x447C2, size: 0x8, addend: 0x0, symName: __ZNSt3__117__compressed_pairIPNS_12basic_stringIcNS_11char_traitsIcEENS_9allocatorIcEEEERNS4_IS6_EEEC2B8ne180100IDnS9_EEOT_OT0_, symObjAddr: 0x9E50, symBinAddr: 0x10000B550, symSize: 0x48 }
  - { offset: 0x4481A, size: 0x8, addend: 0x0, symName: __ZNSt3__122__compressed_pair_elemIRNS_9allocatorINS_12basic_stringIcNS_11char_traitsIcEENS1_IcEEEEEELi1ELb0EEC2B8ne180100IS8_vEEOT_, symObjAddr: 0x9E98, symBinAddr: 0x10000B598, symSize: 0x20 }
  - { offset: 0x4485C, size: 0x8, addend: 0x0, symName: __ZNSt3__19allocatorINS_12basic_stringIcNS_11char_traitsIcEENS0_IcEEEEE8allocateB8ne180100Em, symObjAddr: 0x9EB8, symBinAddr: 0x10000B5B8, symSize: 0x58 }
  - { offset: 0x44890, size: 0x8, addend: 0x0, symName: __ZNSt3__117__compressed_pairIPNS_12basic_stringIcNS_11char_traitsIcEENS_9allocatorIcEEEERNS4_IS6_EEE6secondB8ne180100Ev, symObjAddr: 0x9F10, symBinAddr: 0x10000B610, symSize: 0x28 }
  - { offset: 0x448B6, size: 0x8, addend: 0x0, symName: __ZNSt3__122__compressed_pair_elemIRNS_9allocatorINS_12basic_stringIcNS_11char_traitsIcEENS1_IcEEEEEELi1ELb0EE5__getB8ne180100Ev, symObjAddr: 0x9F38, symBinAddr: 0x10000B638, symSize: 0x18 }
  - { offset: 0x448DC, size: 0x8, addend: 0x0, symName: __ZNSt3__117__compressed_pairIPNS_12basic_stringIcNS_11char_traitsIcEENS_9allocatorIcEEEERNS4_IS6_EEE5firstB8ne180100Ev, symObjAddr: 0x9F50, symBinAddr: 0x10000B650, symSize: 0x24 }
  - { offset: 0x44902, size: 0x8, addend: 0x0, symName: __ZNSt3__116reverse_iteratorIPNS_12basic_stringIcNS_11char_traitsIcEENS_9allocatorIcEEEEEC1B8ne180100ES7_, symObjAddr: 0xA0A0, symBinAddr: 0x10000B7A0, symSize: 0x34 }
  - { offset: 0x4493A, size: 0x8, addend: 0x0, symName: __ZNKSt3__116reverse_iteratorIPNS_12basic_stringIcNS_11char_traitsIcEENS_9allocatorIcEEEEE4baseB8ne180100Ev, symObjAddr: 0xA0D4, symBinAddr: 0x10000B7D4, symSize: 0x18 }
  - { offset: 0x44960, size: 0x8, addend: 0x0, symName: __ZNKSt3__16vectorINS_12basic_stringIcNS_11char_traitsIcEENS_9allocatorIcEEEENS4_IS6_EEE14__annotate_newB8ne180100Em, symObjAddr: 0xA128, symBinAddr: 0x10000B828, symSize: 0x14 }
  - { offset: 0x44995, size: 0x8, addend: 0x0, symName: __ZNSt3__129_AllocatorDestroyRangeReverseINS_9allocatorINS_12basic_stringIcNS_11char_traitsIcEENS1_IcEEEEEENS_16reverse_iteratorIPS6_EEEC1B8ne180100ERS7_RSA_SD_, symObjAddr: 0xA188, symBinAddr: 0x10000B888, symSize: 0x44 }
  - { offset: 0x449F2, size: 0x8, addend: 0x0, symName: __ZNSt3__116allocator_traitsINS_9allocatorINS_12basic_stringIcNS_11char_traitsIcEENS1_IcEEEEEEE9constructB8ne180100IS6_JS6_EvEEvRS7_PT_DpOT0_, symObjAddr: 0xA210, symBinAddr: 0x10000B910, symSize: 0x34 }
  - { offset: 0x44A49, size: 0x8, addend: 0x0, symName: __ZNKSt3__116reverse_iteratorIPNS_12basic_stringIcNS_11char_traitsIcEENS_9allocatorIcEEEEEdeB8ne180100Ev, symObjAddr: 0xA268, symBinAddr: 0x10000B968, symSize: 0x28 }
  - { offset: 0x44A7D, size: 0x8, addend: 0x0, symName: __ZNSt3__116reverse_iteratorIPNS_12basic_stringIcNS_11char_traitsIcEENS_9allocatorIcEEEEEppB8ne180100Ev, symObjAddr: 0xA290, symBinAddr: 0x10000B990, symSize: 0x20 }
  - { offset: 0x44AA3, size: 0x8, addend: 0x0, symName: __ZNSt3__128__exception_guard_exceptionsINS_29_AllocatorDestroyRangeReverseINS_9allocatorINS_12basic_stringIcNS_11char_traitsIcEENS2_IcEEEEEENS_16reverse_iteratorIPS7_EEEEE10__completeB8ne180100Ev, symObjAddr: 0xA2B0, symBinAddr: 0x10000B9B0, symSize: 0x1C }
  - { offset: 0x44AC9, size: 0x8, addend: 0x0, symName: __ZNSt3__128__exception_guard_exceptionsINS_29_AllocatorDestroyRangeReverseINS_9allocatorINS_12basic_stringIcNS_11char_traitsIcEENS2_IcEEEEEENS_16reverse_iteratorIPS7_EEEEED1B8ne180100Ev, symObjAddr: 0xA2CC, symBinAddr: 0x10000B9CC, symSize: 0x2C }
  - { offset: 0x44AF3, size: 0x8, addend: 0x0, symName: __ZNSt3__128__exception_guard_exceptionsINS_29_AllocatorDestroyRangeReverseINS_9allocatorINS_12basic_stringIcNS_11char_traitsIcEENS2_IcEEEEEENS_16reverse_iteratorIPS7_EEEEEC1B8ne180100ESC_, symObjAddr: 0xA2F8, symBinAddr: 0x10000B9F8, symSize: 0x34 }
  - { offset: 0x44B2C, size: 0x8, addend: 0x0, symName: __ZNSt3__128__exception_guard_exceptionsINS_29_AllocatorDestroyRangeReverseINS_9allocatorINS_12basic_stringIcNS_11char_traitsIcEENS2_IcEEEEEENS_16reverse_iteratorIPS7_EEEEEC2B8ne180100ESC_, symObjAddr: 0xA32C, symBinAddr: 0x10000BA2C, symSize: 0x30 }
  - { offset: 0x44B65, size: 0x8, addend: 0x0, symName: __ZNSt3__129_AllocatorDestroyRangeReverseINS_9allocatorINS_12basic_stringIcNS_11char_traitsIcEENS1_IcEEEEEENS_16reverse_iteratorIPS6_EEEC2B8ne180100ERS7_RSA_SD_, symObjAddr: 0xA35C, symBinAddr: 0x10000BA5C, symSize: 0x38 }
  - { offset: 0x44BBC, size: 0x8, addend: 0x0, symName: __ZNSt3__19allocatorINS_12basic_stringIcNS_11char_traitsIcEENS0_IcEEEEE9constructB8ne180100IS5_JS5_EEEvPT_DpOT0_, symObjAddr: 0xA394, symBinAddr: 0x10000BA94, symSize: 0x30 }
  - { offset: 0x44C12, size: 0x8, addend: 0x0, symName: __ZNSt3__112basic_stringIcNS_11char_traitsIcEENS_9allocatorIcEEEC1B8ne180100EOS5_, symObjAddr: 0xA3C4, symBinAddr: 0x10000BAC4, symSize: 0x34 }
  - { offset: 0x44C4B, size: 0x8, addend: 0x0, symName: __ZNSt3__112basic_stringIcNS_11char_traitsIcEENS_9allocatorIcEEEC2B8ne180100EOS5_, symObjAddr: 0xA3F8, symBinAddr: 0x10000BAF8, symSize: 0xB8 }
  - { offset: 0x44CB6, size: 0x8, addend: 0x0, symName: __ZZNSt3__112basic_stringIcNS_11char_traitsIcEENS_9allocatorIcEEEC1B8ne180100EOS5_ENKUlRS5_E_clES7_, symObjAddr: 0xA4B0, symBinAddr: 0x10000BBB0, symSize: 0x40 }
  - { offset: 0x44CEF, size: 0x8, addend: 0x0, symName: __ZNSt3__117__compressed_pairINS_12basic_stringIcNS_11char_traitsIcEENS_9allocatorIcEEE5__repES5_E5firstB8ne180100Ev, symObjAddr: 0xA4F0, symBinAddr: 0x10000BBF0, symSize: 0x24 }
  - { offset: 0x44D15, size: 0x8, addend: 0x0, symName: __ZNKSt3__112basic_stringIcNS_11char_traitsIcEENS_9allocatorIcEEE14__annotate_newB8ne180100Em, symObjAddr: 0xA514, symBinAddr: 0x10000BC14, symSize: 0x14 }
  - { offset: 0x44D4A, size: 0x8, addend: 0x0, symName: __ZNKSt3__112basic_stringIcNS_11char_traitsIcEENS_9allocatorIcEEE9__is_longB8ne180100Ev, symObjAddr: 0xA528, symBinAddr: 0x10000BC28, symSize: 0x34 }
  - { offset: 0x44D70, size: 0x8, addend: 0x0, symName: __ZNKSt3__112basic_stringIcNS_11char_traitsIcEENS_9allocatorIcEEE4sizeB8ne180100Ev, symObjAddr: 0xA55C, symBinAddr: 0x10000BC5C, symSize: 0x54 }
  - { offset: 0x44D96, size: 0x8, addend: 0x0, symName: __ZNKSt3__112basic_stringIcNS_11char_traitsIcEENS_9allocatorIcEEE17__annotate_deleteB8ne180100Ev, symObjAddr: 0xA5B0, symBinAddr: 0x10000BCB0, symSize: 0x10 }
  - { offset: 0x44DBC, size: 0x8, addend: 0x0, symName: __ZNSt3__122__compressed_pair_elemINS_12basic_stringIcNS_11char_traitsIcEENS_9allocatorIcEEE5__repELi0ELb0EE5__getB8ne180100Ev, symObjAddr: 0xA5C0, symBinAddr: 0x10000BCC0, symSize: 0x14 }
  - { offset: 0x44DE2, size: 0x8, addend: 0x0, symName: __ZNKSt3__117__compressed_pairINS_12basic_stringIcNS_11char_traitsIcEENS_9allocatorIcEEE5__repES5_E5firstB8ne180100Ev, symObjAddr: 0xA5D4, symBinAddr: 0x10000BCD4, symSize: 0x24 }
  - { offset: 0x44E08, size: 0x8, addend: 0x0, symName: __ZNKSt3__122__compressed_pair_elemINS_12basic_stringIcNS_11char_traitsIcEENS_9allocatorIcEEE5__repELi0ELb0EE5__getB8ne180100Ev, symObjAddr: 0xA5F8, symBinAddr: 0x10000BCF8, symSize: 0x14 }
  - { offset: 0x44E2E, size: 0x8, addend: 0x0, symName: __ZNKSt3__112basic_stringIcNS_11char_traitsIcEENS_9allocatorIcEEE15__get_long_sizeB8ne180100Ev, symObjAddr: 0xA60C, symBinAddr: 0x10000BD0C, symSize: 0x28 }
  - { offset: 0x44E54, size: 0x8, addend: 0x0, symName: __ZNKSt3__112basic_stringIcNS_11char_traitsIcEENS_9allocatorIcEEE16__get_short_sizeB8ne180100Ev, symObjAddr: 0xA634, symBinAddr: 0x10000BD34, symSize: 0x34 }
  - { offset: 0x44E80, size: 0x8, addend: 0x0, symName: __ZNSt3__119__to_address_helperINS_16reverse_iteratorIPNS_12basic_stringIcNS_11char_traitsIcEENS_9allocatorIcEEEEEEvE6__callB8ne180100ERKS9_, symObjAddr: 0xA668, symBinAddr: 0x10000BD68, symSize: 0x38 }
  - { offset: 0x44EA3, size: 0x8, addend: 0x0, symName: __ZNKSt3__116reverse_iteratorIPNS_12basic_stringIcNS_11char_traitsIcEENS_9allocatorIcEEEEEptB8ne180100Ev, symObjAddr: 0xA6A0, symBinAddr: 0x10000BDA0, symSize: 0x24 }
  - { offset: 0x44EC9, size: 0x8, addend: 0x0, symName: __ZNSt3__128__exception_guard_exceptionsINS_29_AllocatorDestroyRangeReverseINS_9allocatorINS_12basic_stringIcNS_11char_traitsIcEENS2_IcEEEEEENS_16reverse_iteratorIPS7_EEEEED2B8ne180100Ev, symObjAddr: 0xA6C4, symBinAddr: 0x10000BDC4, symSize: 0x50 }
  - { offset: 0x44EF3, size: 0x8, addend: 0x0, symName: __ZNKSt3__129_AllocatorDestroyRangeReverseINS_9allocatorINS_12basic_stringIcNS_11char_traitsIcEENS1_IcEEEEEENS_16reverse_iteratorIPS6_EEEclB8ne180100Ev, symObjAddr: 0xA714, symBinAddr: 0x10000BE14, symSize: 0xB0 }
  - { offset: 0x44F1A, size: 0x8, addend: 0x0, symName: __ZNSt3__116reverse_iteratorINS0_IPNS_12basic_stringIcNS_11char_traitsIcEENS_9allocatorIcEEEEEEEC1B8ne180100ES8_, symObjAddr: 0xA834, symBinAddr: 0x10000BF34, symSize: 0x3C }
  - { offset: 0x44F52, size: 0x8, addend: 0x0, symName: __ZNSt3__116reverse_iteratorINS0_IPNS_12basic_stringIcNS_11char_traitsIcEENS_9allocatorIcEEEEEEEppB8ne180100Ev, symObjAddr: 0xA8F0, symBinAddr: 0x10000BFF0, symSize: 0x30 }
  - { offset: 0x44F78, size: 0x8, addend: 0x0, symName: __ZNKSt3__116reverse_iteratorINS0_IPNS_12basic_stringIcNS_11char_traitsIcEENS_9allocatorIcEEEEEEE4baseB8ne180100Ev, symObjAddr: 0xA920, symBinAddr: 0x10000C020, symSize: 0x24 }
  - { offset: 0x44FA4, size: 0x8, addend: 0x0, symName: __ZNSt3__119__to_address_helperINS_16reverse_iteratorINS1_IPNS_12basic_stringIcNS_11char_traitsIcEENS_9allocatorIcEEEEEEEEvE6__callB8ne180100ERKSA_, symObjAddr: 0xA944, symBinAddr: 0x10000C044, symSize: 0x38 }
  - { offset: 0x44FC7, size: 0x8, addend: 0x0, symName: __ZNKSt3__116reverse_iteratorINS0_IPNS_12basic_stringIcNS_11char_traitsIcEENS_9allocatorIcEEEEEEEptB8ne180100Ev, symObjAddr: 0xA97C, symBinAddr: 0x10000C07C, symSize: 0x24 }
  - { offset: 0x44FED, size: 0x8, addend: 0x0, symName: __ZNKSt3__116reverse_iteratorINS0_IPNS_12basic_stringIcNS_11char_traitsIcEENS_9allocatorIcEEEEEEEdeB8ne180100Ev, symObjAddr: 0xA9A0, symBinAddr: 0x10000C0A0, symSize: 0x34 }
  - { offset: 0x45021, size: 0x8, addend: 0x0, symName: __ZNSt3__116reverse_iteratorIPNS_12basic_stringIcNS_11char_traitsIcEENS_9allocatorIcEEEEEmmB8ne180100Ev, symObjAddr: 0xA9D4, symBinAddr: 0x10000C0D4, symSize: 0x20 }
  - { offset: 0x45047, size: 0x8, addend: 0x0, symName: __ZNSt3__116reverse_iteratorINS0_IPNS_12basic_stringIcNS_11char_traitsIcEENS_9allocatorIcEEEEEEEC2B8ne180100ES8_, symObjAddr: 0xA9F4, symBinAddr: 0x10000C0F4, symSize: 0x2C }
  - { offset: 0x4507F, size: 0x8, addend: 0x0, symName: __ZNSt3__116reverse_iteratorIPNS_12basic_stringIcNS_11char_traitsIcEENS_9allocatorIcEEEEEC2B8ne180100ES7_, symObjAddr: 0xAA20, symBinAddr: 0x10000C120, symSize: 0x28 }
  - { offset: 0x450B7, size: 0x8, addend: 0x0, symName: __ZNSt3__114__split_bufferINS_12basic_stringIcNS_11char_traitsIcEENS_9allocatorIcEEEERNS4_IS6_EEED2Ev, symObjAddr: 0xAA48, symBinAddr: 0x10000C148, symSize: 0x84 }
  - { offset: 0x450E3, size: 0x8, addend: 0x0, symName: __ZNSt3__114__split_bufferINS_12basic_stringIcNS_11char_traitsIcEENS_9allocatorIcEEEERNS4_IS6_EEE5clearB8ne180100Ev, symObjAddr: 0xAACC, symBinAddr: 0x10000C1CC, symSize: 0x28 }
  - { offset: 0x45109, size: 0x8, addend: 0x0, symName: __ZNKSt3__114__split_bufferINS_12basic_stringIcNS_11char_traitsIcEENS_9allocatorIcEEEERNS4_IS6_EEE8capacityB8ne180100Ev, symObjAddr: 0xAAF4, symBinAddr: 0x10000C1F4, symSize: 0x40 }
  - { offset: 0x4512F, size: 0x8, addend: 0x0, symName: __ZNSt3__114__split_bufferINS_12basic_stringIcNS_11char_traitsIcEENS_9allocatorIcEEEERNS4_IS6_EEE17__destruct_at_endB8ne180100EPS6_, symObjAddr: 0xAB34, symBinAddr: 0x10000C234, symSize: 0x2C }
  - { offset: 0x45163, size: 0x8, addend: 0x0, symName: __ZNSt3__114__split_bufferINS_12basic_stringIcNS_11char_traitsIcEENS_9allocatorIcEEEERNS4_IS6_EEE17__destruct_at_endB8ne180100EPS6_NS_17integral_constantIbLb0EEE, symObjAddr: 0xAB60, symBinAddr: 0x10000C260, symSize: 0x7C }
  - { offset: 0x451A4, size: 0x8, addend: 0x0, symName: __ZNKSt3__114__split_bufferINS_12basic_stringIcNS_11char_traitsIcEENS_9allocatorIcEEEERNS4_IS6_EEE9__end_capB8ne180100Ev, symObjAddr: 0xABDC, symBinAddr: 0x10000C2DC, symSize: 0x28 }
  - { offset: 0x451CA, size: 0x8, addend: 0x0, symName: __ZNKSt3__117__compressed_pairIPNS_12basic_stringIcNS_11char_traitsIcEENS_9allocatorIcEEEERNS4_IS6_EEE5firstB8ne180100Ev, symObjAddr: 0xAC04, symBinAddr: 0x10000C304, symSize: 0x24 }
  - { offset: 0x451F0, size: 0x8, addend: 0x0, symName: __ZNSt3__16vectorINS_12basic_stringIcNS_11char_traitsIcEENS_9allocatorIcEEEENS4_IS6_EEE22__construct_one_at_endB8ne180100IJS6_EEEvDpOT_, symObjAddr: 0xAC28, symBinAddr: 0x10000C328, symSize: 0x90 }
  - { offset: 0x4523F, size: 0x8, addend: 0x0, symName: __ZNSt3__16vectorINS_12basic_stringIcNS_11char_traitsIcEENS_9allocatorIcEEEENS4_IS6_EEE21__push_back_slow_pathIS6_EEPS6_OT_, symObjAddr: 0xACB8, symBinAddr: 0x10000C3B8, symSize: 0xE8 }
  - { offset: 0x4529B, size: 0x8, addend: 0x0, symName: __ZNSt3__16vectorIN7rocksdb22ColumnFamilyDescriptorENS_9allocatorIS2_EEEC2B8ne180100Ev, symObjAddr: 0xADA0, symBinAddr: 0x10000C4A0, symSize: 0x4C }
  - { offset: 0x452C5, size: 0x8, addend: 0x0, symName: __ZNSt3__117__compressed_pairIPN7rocksdb22ColumnFamilyDescriptorENS_9allocatorIS2_EEEC1B8ne180100IDnNS_18__default_init_tagEEEOT_OT0_, symObjAddr: 0xADEC, symBinAddr: 0x10000C4EC, symSize: 0x3C }
  - { offset: 0x4531D, size: 0x8, addend: 0x0, symName: __ZNSt3__117__compressed_pairIPN7rocksdb22ColumnFamilyDescriptorENS_9allocatorIS2_EEEC2B8ne180100IDnNS_18__default_init_tagEEEOT_OT0_, symObjAddr: 0xAE28, symBinAddr: 0x10000C528, symSize: 0x40 }
  - { offset: 0x45375, size: 0x8, addend: 0x0, symName: __ZNSt3__122__compressed_pair_elemIPN7rocksdb22ColumnFamilyDescriptorELi0ELb0EEC2B8ne180100IDnvEEOT_, symObjAddr: 0xAE68, symBinAddr: 0x10000C568, symSize: 0x1C }
  - { offset: 0x453B7, size: 0x8, addend: 0x0, symName: __ZNSt3__122__compressed_pair_elemINS_9allocatorIN7rocksdb22ColumnFamilyDescriptorEEELi1ELb1EEC2B8ne180100ENS_18__default_init_tagE, symObjAddr: 0xAE84, symBinAddr: 0x10000C584, symSize: 0x2C }
  - { offset: 0x453EC, size: 0x8, addend: 0x0, symName: __ZNSt3__19allocatorIN7rocksdb22ColumnFamilyDescriptorEEC2B8ne180100Ev, symObjAddr: 0xAEB0, symBinAddr: 0x10000C5B0, symSize: 0x2C }
  - { offset: 0x45416, size: 0x8, addend: 0x0, symName: __ZNSt3__116__non_trivial_ifILb1ENS_9allocatorIN7rocksdb22ColumnFamilyDescriptorEEEEC2B8ne180100Ev, symObjAddr: 0xAEDC, symBinAddr: 0x10000C5DC, symSize: 0x14 }
  - { offset: 0x45440, size: 0x8, addend: 0x0, symName: __ZNSt3__16vectorIN7rocksdb22ColumnFamilyDescriptorENS_9allocatorIS2_EEED2B8ne180100Ev, symObjAddr: 0xAEF0, symBinAddr: 0x10000C5F0, symSize: 0x44 }
  - { offset: 0x4546A, size: 0x8, addend: 0x0, symName: __ZNSt3__16vectorIN7rocksdb22ColumnFamilyDescriptorENS_9allocatorIS2_EEE16__destroy_vectorC1B8ne180100ERS5_, symObjAddr: 0xAF34, symBinAddr: 0x10000C634, symSize: 0x34 }
  - { offset: 0x454A3, size: 0x8, addend: 0x0, symName: __ZNSt3__16vectorIN7rocksdb22ColumnFamilyDescriptorENS_9allocatorIS2_EEE16__destroy_vectorclB8ne180100Ev, symObjAddr: 0xAF68, symBinAddr: 0x10000C668, symSize: 0x88 }
  - { offset: 0x454C9, size: 0x8, addend: 0x0, symName: __ZNSt3__16vectorIN7rocksdb22ColumnFamilyDescriptorENS_9allocatorIS2_EEE16__destroy_vectorC2B8ne180100ERS5_, symObjAddr: 0xAFF0, symBinAddr: 0x10000C6F0, symSize: 0x20 }
  - { offset: 0x45502, size: 0x8, addend: 0x0, symName: __ZNSt3__16vectorIN7rocksdb22ColumnFamilyDescriptorENS_9allocatorIS2_EEE7__clearB8ne180100Ev, symObjAddr: 0xB010, symBinAddr: 0x10000C710, symSize: 0x28 }
  - { offset: 0x45528, size: 0x8, addend: 0x0, symName: __ZNKSt3__16vectorIN7rocksdb22ColumnFamilyDescriptorENS_9allocatorIS2_EEE17__annotate_deleteB8ne180100Ev, symObjAddr: 0xB038, symBinAddr: 0x10000C738, symSize: 0x10 }
  - { offset: 0x4554E, size: 0x8, addend: 0x0, symName: __ZNSt3__116allocator_traitsINS_9allocatorIN7rocksdb22ColumnFamilyDescriptorEEEE10deallocateB8ne180100ERS4_PS3_m, symObjAddr: 0xB048, symBinAddr: 0x10000C748, symSize: 0x34 }
  - { offset: 0x45590, size: 0x8, addend: 0x0, symName: __ZNSt3__16vectorIN7rocksdb22ColumnFamilyDescriptorENS_9allocatorIS2_EEE7__allocB8ne180100Ev, symObjAddr: 0xB07C, symBinAddr: 0x10000C77C, symSize: 0x28 }
  - { offset: 0x455B6, size: 0x8, addend: 0x0, symName: __ZNKSt3__16vectorIN7rocksdb22ColumnFamilyDescriptorENS_9allocatorIS2_EEE8capacityB8ne180100Ev, symObjAddr: 0xB0A4, symBinAddr: 0x10000C7A4, symSize: 0x40 }
  - { offset: 0x455DC, size: 0x8, addend: 0x0, symName: __ZNSt3__16vectorIN7rocksdb22ColumnFamilyDescriptorENS_9allocatorIS2_EEE22__base_destruct_at_endB8ne180100EPS2_, symObjAddr: 0xB0E4, symBinAddr: 0x10000C7E4, symSize: 0x88 }
  - { offset: 0x45620, size: 0x8, addend: 0x0, symName: __ZNSt3__116allocator_traitsINS_9allocatorIN7rocksdb22ColumnFamilyDescriptorEEEE7destroyB8ne180100IS3_vEEvRS4_PT_, symObjAddr: 0xB16C, symBinAddr: 0x10000C86C, symSize: 0x2C }
  - { offset: 0x4565D, size: 0x8, addend: 0x0, symName: __ZNSt3__19allocatorIN7rocksdb22ColumnFamilyDescriptorEE7destroyB8ne180100EPS2_, symObjAddr: 0xB1AC, symBinAddr: 0x10000C8AC, symSize: 0x28 }
  - { offset: 0x45691, size: 0x8, addend: 0x0, symName: __ZNSt3__19allocatorIN7rocksdb22ColumnFamilyDescriptorEE10deallocateB8ne180100EPS2_m, symObjAddr: 0xB1D4, symBinAddr: 0x10000C8D4, symSize: 0x44 }
  - { offset: 0x456D3, size: 0x8, addend: 0x0, symName: __ZNSt3__117__compressed_pairIPN7rocksdb22ColumnFamilyDescriptorENS_9allocatorIS2_EEE6secondB8ne180100Ev, symObjAddr: 0xB218, symBinAddr: 0x10000C918, symSize: 0x24 }
  - { offset: 0x456F9, size: 0x8, addend: 0x0, symName: __ZNSt3__122__compressed_pair_elemINS_9allocatorIN7rocksdb22ColumnFamilyDescriptorEEELi1ELb1EE5__getB8ne180100Ev, symObjAddr: 0xB23C, symBinAddr: 0x10000C93C, symSize: 0x14 }
  - { offset: 0x4571F, size: 0x8, addend: 0x0, symName: __ZNKSt3__16vectorIN7rocksdb22ColumnFamilyDescriptorENS_9allocatorIS2_EEE9__end_capB8ne180100Ev, symObjAddr: 0xB250, symBinAddr: 0x10000C950, symSize: 0x28 }
  - { offset: 0x45745, size: 0x8, addend: 0x0, symName: __ZNKSt3__117__compressed_pairIPN7rocksdb22ColumnFamilyDescriptorENS_9allocatorIS2_EEE5firstB8ne180100Ev, symObjAddr: 0xB278, symBinAddr: 0x10000C978, symSize: 0x24 }
  - { offset: 0x4576B, size: 0x8, addend: 0x0, symName: __ZNKSt3__122__compressed_pair_elemIPN7rocksdb22ColumnFamilyDescriptorELi0ELb0EE5__getB8ne180100Ev, symObjAddr: 0xB29C, symBinAddr: 0x10000C99C, symSize: 0x14 }
  - { offset: 0x45791, size: 0x8, addend: 0x0, symName: __ZNSt3__16vectorIN7rocksdb22ColumnFamilyDescriptorENS_9allocatorIS2_EEE9__end_capB8ne180100Ev, symObjAddr: 0xB2B0, symBinAddr: 0x10000C9B0, symSize: 0x28 }
  - { offset: 0x457BD, size: 0x8, addend: 0x0, symName: __ZNSt3__16vectorIN7rocksdb22ColumnFamilyDescriptorENS_9allocatorIS2_EEE22__construct_one_at_endB8ne180100IJS2_EEEvDpOT_, symObjAddr: 0xB2D8, symBinAddr: 0x10000C9D8, symSize: 0x90 }
  - { offset: 0x4580C, size: 0x8, addend: 0x0, symName: __ZNSt3__16vectorIN7rocksdb22ColumnFamilyDescriptorENS_9allocatorIS2_EEE21__push_back_slow_pathIS2_EEPS2_OT_, symObjAddr: 0xB368, symBinAddr: 0x10000CA68, symSize: 0xE8 }
  - { offset: 0x45868, size: 0x8, addend: 0x0, symName: __ZNSt3__117__compressed_pairIPN7rocksdb22ColumnFamilyDescriptorENS_9allocatorIS2_EEE5firstB8ne180100Ev, symObjAddr: 0xB450, symBinAddr: 0x10000CB50, symSize: 0x24 }
  - { offset: 0x4588E, size: 0x8, addend: 0x0, symName: __ZNSt3__122__compressed_pair_elemIPN7rocksdb22ColumnFamilyDescriptorELi0ELb0EE5__getB8ne180100Ev, symObjAddr: 0xB474, symBinAddr: 0x10000CB74, symSize: 0x14 }
  - { offset: 0x458D0, size: 0x8, addend: 0x0, symName: __ZNSt3__16vectorIN7rocksdb22ColumnFamilyDescriptorENS_9allocatorIS2_EEE21_ConstructTransactionC1B8ne180100ERS5_m, symObjAddr: 0xB488, symBinAddr: 0x10000CB88, symSize: 0x3C }
  - { offset: 0x45918, size: 0x8, addend: 0x0, symName: __ZNSt3__116allocator_traitsINS_9allocatorIN7rocksdb22ColumnFamilyDescriptorEEEE9constructB8ne180100IS3_JS3_EvEEvRS4_PT_DpOT0_, symObjAddr: 0xB4C4, symBinAddr: 0x10000CBC4, symSize: 0x34 }
  - { offset: 0x4596F, size: 0x8, addend: 0x0, symName: __ZNSt3__16vectorIN7rocksdb22ColumnFamilyDescriptorENS_9allocatorIS2_EEE21_ConstructTransactionD1B8ne180100Ev, symObjAddr: 0xB4F8, symBinAddr: 0x10000CBF8, symSize: 0x2C }
  - { offset: 0x45999, size: 0x8, addend: 0x0, symName: __ZNSt3__16vectorIN7rocksdb22ColumnFamilyDescriptorENS_9allocatorIS2_EEE21_ConstructTransactionC2B8ne180100ERS5_m, symObjAddr: 0xB524, symBinAddr: 0x10000CC24, symSize: 0x4C }
  - { offset: 0x459E1, size: 0x8, addend: 0x0, symName: __ZNSt3__19allocatorIN7rocksdb22ColumnFamilyDescriptorEE9constructB8ne180100IS2_JS2_EEEvPT_DpOT0_, symObjAddr: 0xB570, symBinAddr: 0x10000CC70, symSize: 0x30 }
  - { offset: 0x45A37, size: 0x8, addend: 0x0, symName: __ZN7rocksdb22ColumnFamilyDescriptorC1EOS0_, symObjAddr: 0xB5A0, symBinAddr: 0x10000CCA0, symSize: 0x34 }
  - { offset: 0x45A6C, size: 0x8, addend: 0x0, symName: __ZN7rocksdb22ColumnFamilyDescriptorC2EOS0_, symObjAddr: 0xB5D4, symBinAddr: 0x10000CCD4, symSize: 0x48 }
  - { offset: 0x45AA7, size: 0x8, addend: 0x0, symName: __ZN7rocksdb19ColumnFamilyOptionsC1EOS0_, symObjAddr: 0xB61C, symBinAddr: 0x10000CD1C, symSize: 0x34 }
  - { offset: 0x45ADC, size: 0x8, addend: 0x0, symName: __ZN7rocksdb19ColumnFamilyOptionsC2EOS0_, symObjAddr: 0xB650, symBinAddr: 0x10000CD50, symSize: 0x110 }
  - { offset: 0x45B17, size: 0x8, addend: 0x0, symName: __ZN7rocksdb27AdvancedColumnFamilyOptionsC2EOS0_, symObjAddr: 0xB760, symBinAddr: 0x10000CE60, symSize: 0x138 }
  - { offset: 0x45B4C, size: 0x8, addend: 0x0, symName: __ZNSt3__110shared_ptrIN7rocksdb13MergeOperatorEEC1B8ne180100EOS3_, symObjAddr: 0xB898, symBinAddr: 0x10000CF98, symSize: 0x34 }
  - { offset: 0x45B85, size: 0x8, addend: 0x0, symName: __ZNSt3__110shared_ptrIN7rocksdb23CompactionFilterFactoryEEC1B8ne180100EOS3_, symObjAddr: 0xB8CC, symBinAddr: 0x10000CFCC, symSize: 0x34 }
  - { offset: 0x45BBE, size: 0x8, addend: 0x0, symName: __ZNSt3__110shared_ptrIKN7rocksdb14SliceTransformEEC1B8ne180100EOS4_, symObjAddr: 0xB900, symBinAddr: 0x10000D000, symSize: 0x34 }
  - { offset: 0x45BF7, size: 0x8, addend: 0x0, symName: __ZNSt3__110shared_ptrIN7rocksdb12TableFactoryEEC1B8ne180100EOS3_, symObjAddr: 0xB934, symBinAddr: 0x10000D034, symSize: 0x34 }
  - { offset: 0x45C30, size: 0x8, addend: 0x0, symName: __ZNSt3__16vectorIN7rocksdb6DbPathENS_9allocatorIS2_EEEC1B8ne180100EOS5_, symObjAddr: 0xB968, symBinAddr: 0x10000D068, symSize: 0x34 }
  - { offset: 0x45C6B, size: 0x8, addend: 0x0, symName: __ZNSt3__110shared_ptrIN7rocksdb21ConcurrentTaskLimiterEEC1B8ne180100EOS3_, symObjAddr: 0xB99C, symBinAddr: 0x10000D09C, symSize: 0x34 }
  - { offset: 0x45CA4, size: 0x8, addend: 0x0, symName: __ZNSt3__110shared_ptrIN7rocksdb21SstPartitionerFactoryEEC1B8ne180100EOS3_, symObjAddr: 0xB9D0, symBinAddr: 0x10000D0D0, symSize: 0x34 }
  - { offset: 0x45CDD, size: 0x8, addend: 0x0, symName: __ZNSt3__16vectorIN7rocksdb15CompressionTypeENS_9allocatorIS2_EEEC1B8ne180100EOS5_, symObjAddr: 0xBA04, symBinAddr: 0x10000D104, symSize: 0x34 }
  - { offset: 0x45D18, size: 0x8, addend: 0x0, symName: __ZNSt3__16vectorIiNS_9allocatorIiEEEC1B8ne180100EOS3_, symObjAddr: 0xBA38, symBinAddr: 0x10000D138, symSize: 0x34 }
  - { offset: 0x45D59, size: 0x8, addend: 0x0, symName: __ZN7rocksdb21CompactionOptionsFIFOC1EOS0_, symObjAddr: 0xBA6C, symBinAddr: 0x10000D16C, symSize: 0x34 }
  - { offset: 0x45D8E, size: 0x8, addend: 0x0, symName: __ZNSt3__110shared_ptrIN7rocksdb18MemTableRepFactoryEEC1B8ne180100EOS3_, symObjAddr: 0xBAA0, symBinAddr: 0x10000D1A0, symSize: 0x34 }
  - { offset: 0x45DC7, size: 0x8, addend: 0x0, symName: __ZNSt3__16vectorINS_10shared_ptrIN7rocksdb31TablePropertiesCollectorFactoryEEENS_9allocatorIS4_EEEC1B8ne180100EOS7_, symObjAddr: 0xBAD4, symBinAddr: 0x10000D1D4, symSize: 0x34 }
  - { offset: 0x45E02, size: 0x8, addend: 0x0, symName: __ZNSt3__110shared_ptrIN7rocksdb5CacheEEC1B8ne180100EOS3_, symObjAddr: 0xBB08, symBinAddr: 0x10000D208, symSize: 0x34 }
  - { offset: 0x45E3B, size: 0x8, addend: 0x0, symName: __ZNSt3__16vectorIN7rocksdb15CompressionTypeENS_9allocatorIS2_EEEC2B8ne180100EOS5_, symObjAddr: 0xBB3C, symBinAddr: 0x10000D23C, symSize: 0xC4 }
  - { offset: 0x45E76, size: 0x8, addend: 0x0, symName: __ZNSt3__16vectorIiNS_9allocatorIiEEEC2B8ne180100EOS3_, symObjAddr: 0xBC00, symBinAddr: 0x10000D300, symSize: 0xC4 }
  - { offset: 0x45EB1, size: 0x8, addend: 0x0, symName: __ZN7rocksdb21CompactionOptionsFIFOC2EOS0_, symObjAddr: 0xBCC4, symBinAddr: 0x10000D3C4, symSize: 0x50 }
  - { offset: 0x45EE6, size: 0x8, addend: 0x0, symName: __ZNSt3__16vectorIN7rocksdb18FileTemperatureAgeENS_9allocatorIS2_EEEC1B8ne180100EOS5_, symObjAddr: 0xBD14, symBinAddr: 0x10000D414, symSize: 0x34 }
  - { offset: 0x45F21, size: 0x8, addend: 0x0, symName: __ZNSt3__16vectorIN7rocksdb18FileTemperatureAgeENS_9allocatorIS2_EEEC2B8ne180100EOS5_, symObjAddr: 0xBD48, symBinAddr: 0x10000D448, symSize: 0xC4 }
  - { offset: 0x45F5C, size: 0x8, addend: 0x0, symName: __ZNSt3__110shared_ptrIN7rocksdb18MemTableRepFactoryEEC2B8ne180100EOS3_, symObjAddr: 0xBE0C, symBinAddr: 0x10000D50C, symSize: 0x40 }
  - { offset: 0x45F95, size: 0x8, addend: 0x0, symName: __ZNSt3__16vectorINS_10shared_ptrIN7rocksdb31TablePropertiesCollectorFactoryEEENS_9allocatorIS4_EEEC2B8ne180100EOS7_, symObjAddr: 0xBE4C, symBinAddr: 0x10000D54C, symSize: 0xC4 }
  - { offset: 0x45FD0, size: 0x8, addend: 0x0, symName: __ZNSt3__110shared_ptrIN7rocksdb5CacheEEC2B8ne180100EOS3_, symObjAddr: 0xBF10, symBinAddr: 0x10000D610, symSize: 0x40 }
  - { offset: 0x46009, size: 0x8, addend: 0x0, symName: __ZNSt3__110shared_ptrIN7rocksdb13MergeOperatorEEC2B8ne180100EOS3_, symObjAddr: 0xBF50, symBinAddr: 0x10000D650, symSize: 0x40 }
  - { offset: 0x46042, size: 0x8, addend: 0x0, symName: __ZNSt3__110shared_ptrIN7rocksdb23CompactionFilterFactoryEEC2B8ne180100EOS3_, symObjAddr: 0xBF90, symBinAddr: 0x10000D690, symSize: 0x40 }
  - { offset: 0x4607B, size: 0x8, addend: 0x0, symName: __ZNSt3__110shared_ptrIKN7rocksdb14SliceTransformEEC2B8ne180100EOS4_, symObjAddr: 0xBFD0, symBinAddr: 0x10000D6D0, symSize: 0x40 }
  - { offset: 0x460B4, size: 0x8, addend: 0x0, symName: __ZNSt3__110shared_ptrIN7rocksdb12TableFactoryEEC2B8ne180100EOS3_, symObjAddr: 0xC010, symBinAddr: 0x10000D710, symSize: 0x40 }
  - { offset: 0x460ED, size: 0x8, addend: 0x0, symName: __ZNSt3__16vectorIN7rocksdb6DbPathENS_9allocatorIS2_EEEC2B8ne180100EOS5_, symObjAddr: 0xC050, symBinAddr: 0x10000D750, symSize: 0xC4 }
  - { offset: 0x46128, size: 0x8, addend: 0x0, symName: __ZNSt3__110shared_ptrIN7rocksdb21ConcurrentTaskLimiterEEC2B8ne180100EOS3_, symObjAddr: 0xC114, symBinAddr: 0x10000D814, symSize: 0x40 }
  - { offset: 0x46161, size: 0x8, addend: 0x0, symName: __ZNSt3__110shared_ptrIN7rocksdb21SstPartitionerFactoryEEC2B8ne180100EOS3_, symObjAddr: 0xC154, symBinAddr: 0x10000D854, symSize: 0x40 }
  - { offset: 0x4619A, size: 0x8, addend: 0x0, symName: __ZNSt3__16vectorIN7rocksdb22ColumnFamilyDescriptorENS_9allocatorIS2_EEE21_ConstructTransactionD2B8ne180100Ev, symObjAddr: 0xC194, symBinAddr: 0x10000D894, symSize: 0x20 }
  - { offset: 0x461C4, size: 0x8, addend: 0x0, symName: __ZNKSt3__16vectorIN7rocksdb22ColumnFamilyDescriptorENS_9allocatorIS2_EEE11__recommendB8ne180100Em, symObjAddr: 0xC1B4, symBinAddr: 0x10000D8B4, symSize: 0xAC }
  - { offset: 0x46219, size: 0x8, addend: 0x0, symName: __ZNKSt3__16vectorIN7rocksdb22ColumnFamilyDescriptorENS_9allocatorIS2_EEE4sizeB8ne180100Ev, symObjAddr: 0xC260, symBinAddr: 0x10000D960, symSize: 0x28 }
  - { offset: 0x4623F, size: 0x8, addend: 0x0, symName: __ZNSt3__114__split_bufferIN7rocksdb22ColumnFamilyDescriptorERNS_9allocatorIS2_EEEC1EmmS5_, symObjAddr: 0xC288, symBinAddr: 0x10000D988, symSize: 0x44 }
  - { offset: 0x46295, size: 0x8, addend: 0x0, symName: __ZNSt3__114__split_bufferIN7rocksdb22ColumnFamilyDescriptorERNS_9allocatorIS2_EEED1Ev, symObjAddr: 0xC3DC, symBinAddr: 0x10000DADC, symSize: 0x2C }
  - { offset: 0x462C1, size: 0x8, addend: 0x0, symName: __ZNKSt3__16vectorIN7rocksdb22ColumnFamilyDescriptorENS_9allocatorIS2_EEE8max_sizeEv, symObjAddr: 0xC408, symBinAddr: 0x10000DB08, symSize: 0x60 }
  - { offset: 0x462E9, size: 0x8, addend: 0x0, symName: __ZNKSt3__16vectorIN7rocksdb22ColumnFamilyDescriptorENS_9allocatorIS2_EEE20__throw_length_errorB8ne180100Ev, symObjAddr: 0xC468, symBinAddr: 0x10000DB68, symSize: 0x1C }
  - { offset: 0x4631A, size: 0x8, addend: 0x0, symName: __ZNSt3__116allocator_traitsINS_9allocatorIN7rocksdb22ColumnFamilyDescriptorEEEE8max_sizeB8ne180100IS4_vEEmRKS4_, symObjAddr: 0xC484, symBinAddr: 0x10000DB84, symSize: 0x24 }
  - { offset: 0x46348, size: 0x8, addend: 0x0, symName: __ZNKSt3__16vectorIN7rocksdb22ColumnFamilyDescriptorENS_9allocatorIS2_EEE7__allocB8ne180100Ev, symObjAddr: 0xC4A8, symBinAddr: 0x10000DBA8, symSize: 0x28 }
  - { offset: 0x4636E, size: 0x8, addend: 0x0, symName: __ZNKSt3__19allocatorIN7rocksdb22ColumnFamilyDescriptorEE8max_sizeB8ne180100Ev, symObjAddr: 0xC4D0, symBinAddr: 0x10000DBD0, symSize: 0x20 }
  - { offset: 0x46394, size: 0x8, addend: 0x0, symName: __ZNKSt3__117__compressed_pairIPN7rocksdb22ColumnFamilyDescriptorENS_9allocatorIS2_EEE6secondB8ne180100Ev, symObjAddr: 0xC4F0, symBinAddr: 0x10000DBF0, symSize: 0x24 }
  - { offset: 0x463BA, size: 0x8, addend: 0x0, symName: __ZNKSt3__122__compressed_pair_elemINS_9allocatorIN7rocksdb22ColumnFamilyDescriptorEEELi1ELb1EE5__getB8ne180100Ev, symObjAddr: 0xC514, symBinAddr: 0x10000DC14, symSize: 0x14 }
  - { offset: 0x463E0, size: 0x8, addend: 0x0, symName: __ZNSt3__114__split_bufferIN7rocksdb22ColumnFamilyDescriptorERNS_9allocatorIS2_EEEC2EmmS5_, symObjAddr: 0xC528, symBinAddr: 0x10000DC28, symSize: 0xD8 }
  - { offset: 0x46453, size: 0x8, addend: 0x0, symName: __ZNSt3__117__compressed_pairIPN7rocksdb22ColumnFamilyDescriptorERNS_9allocatorIS2_EEEC1B8ne180100IDnS6_EEOT_OT0_, symObjAddr: 0xC600, symBinAddr: 0x10000DD00, symSize: 0x3C }
  - { offset: 0x464AB, size: 0x8, addend: 0x0, symName: __ZNSt3__114__split_bufferIN7rocksdb22ColumnFamilyDescriptorERNS_9allocatorIS2_EEE7__allocB8ne180100Ev, symObjAddr: 0xC67C, symBinAddr: 0x10000DD7C, symSize: 0x28 }
  - { offset: 0x464D1, size: 0x8, addend: 0x0, symName: __ZNSt3__114__split_bufferIN7rocksdb22ColumnFamilyDescriptorERNS_9allocatorIS2_EEE9__end_capB8ne180100Ev, symObjAddr: 0xC6A4, symBinAddr: 0x10000DDA4, symSize: 0x28 }
  - { offset: 0x464F7, size: 0x8, addend: 0x0, symName: __ZNSt3__117__compressed_pairIPN7rocksdb22ColumnFamilyDescriptorERNS_9allocatorIS2_EEEC2B8ne180100IDnS6_EEOT_OT0_, symObjAddr: 0xC6CC, symBinAddr: 0x10000DDCC, symSize: 0x48 }
  - { offset: 0x4654F, size: 0x8, addend: 0x0, symName: __ZNSt3__122__compressed_pair_elemIRNS_9allocatorIN7rocksdb22ColumnFamilyDescriptorEEELi1ELb0EEC2B8ne180100IS5_vEEOT_, symObjAddr: 0xC714, symBinAddr: 0x10000DE14, symSize: 0x20 }
  - { offset: 0x46591, size: 0x8, addend: 0x0, symName: __ZNSt3__19allocatorIN7rocksdb22ColumnFamilyDescriptorEE8allocateB8ne180100Em, symObjAddr: 0xC734, symBinAddr: 0x10000DE34, symSize: 0x58 }
  - { offset: 0x465C5, size: 0x8, addend: 0x0, symName: __ZNSt3__117__compressed_pairIPN7rocksdb22ColumnFamilyDescriptorERNS_9allocatorIS2_EEE6secondB8ne180100Ev, symObjAddr: 0xC78C, symBinAddr: 0x10000DE8C, symSize: 0x28 }
  - { offset: 0x465EB, size: 0x8, addend: 0x0, symName: __ZNSt3__122__compressed_pair_elemIRNS_9allocatorIN7rocksdb22ColumnFamilyDescriptorEEELi1ELb0EE5__getB8ne180100Ev, symObjAddr: 0xC7B4, symBinAddr: 0x10000DEB4, symSize: 0x18 }
  - { offset: 0x46611, size: 0x8, addend: 0x0, symName: __ZNSt3__117__compressed_pairIPN7rocksdb22ColumnFamilyDescriptorERNS_9allocatorIS2_EEE5firstB8ne180100Ev, symObjAddr: 0xC7CC, symBinAddr: 0x10000DECC, symSize: 0x24 }
  - { offset: 0x46637, size: 0x8, addend: 0x0, symName: __ZNSt3__116reverse_iteratorIPN7rocksdb22ColumnFamilyDescriptorEEC1B8ne180100ES3_, symObjAddr: 0xC91C, symBinAddr: 0x10000E01C, symSize: 0x34 }
  - { offset: 0x4666F, size: 0x8, addend: 0x0, symName: __ZNKSt3__116reverse_iteratorIPN7rocksdb22ColumnFamilyDescriptorEE4baseB8ne180100Ev, symObjAddr: 0xC950, symBinAddr: 0x10000E050, symSize: 0x18 }
  - { offset: 0x46695, size: 0x8, addend: 0x0, symName: __ZNKSt3__16vectorIN7rocksdb22ColumnFamilyDescriptorENS_9allocatorIS2_EEE14__annotate_newB8ne180100Em, symObjAddr: 0xC9A4, symBinAddr: 0x10000E0A4, symSize: 0x14 }
  - { offset: 0x466CA, size: 0x8, addend: 0x0, symName: __ZNSt3__129_AllocatorDestroyRangeReverseINS_9allocatorIN7rocksdb22ColumnFamilyDescriptorEEENS_16reverse_iteratorIPS3_EEEC1B8ne180100ERS4_RS7_SA_, symObjAddr: 0xCA04, symBinAddr: 0x10000E104, symSize: 0x44 }
  - { offset: 0x46721, size: 0x8, addend: 0x0, symName: __ZNKSt3__116reverse_iteratorIPN7rocksdb22ColumnFamilyDescriptorEEdeB8ne180100Ev, symObjAddr: 0xCAB0, symBinAddr: 0x10000E1B0, symSize: 0x28 }
  - { offset: 0x46755, size: 0x8, addend: 0x0, symName: __ZNSt3__116reverse_iteratorIPN7rocksdb22ColumnFamilyDescriptorEEppB8ne180100Ev, symObjAddr: 0xCAD8, symBinAddr: 0x10000E1D8, symSize: 0x20 }
  - { offset: 0x4677B, size: 0x8, addend: 0x0, symName: __ZNSt3__128__exception_guard_exceptionsINS_29_AllocatorDestroyRangeReverseINS_9allocatorIN7rocksdb22ColumnFamilyDescriptorEEENS_16reverse_iteratorIPS4_EEEEE10__completeB8ne180100Ev, symObjAddr: 0xCAF8, symBinAddr: 0x10000E1F8, symSize: 0x1C }
  - { offset: 0x467A1, size: 0x8, addend: 0x0, symName: __ZNSt3__128__exception_guard_exceptionsINS_29_AllocatorDestroyRangeReverseINS_9allocatorIN7rocksdb22ColumnFamilyDescriptorEEENS_16reverse_iteratorIPS4_EEEEED1B8ne180100Ev, symObjAddr: 0xCB14, symBinAddr: 0x10000E214, symSize: 0x2C }
  - { offset: 0x467CB, size: 0x8, addend: 0x0, symName: __ZNSt3__128__exception_guard_exceptionsINS_29_AllocatorDestroyRangeReverseINS_9allocatorIN7rocksdb22ColumnFamilyDescriptorEEENS_16reverse_iteratorIPS4_EEEEEC1B8ne180100ES9_, symObjAddr: 0xCB40, symBinAddr: 0x10000E240, symSize: 0x34 }
  - { offset: 0x46804, size: 0x8, addend: 0x0, symName: __ZNSt3__128__exception_guard_exceptionsINS_29_AllocatorDestroyRangeReverseINS_9allocatorIN7rocksdb22ColumnFamilyDescriptorEEENS_16reverse_iteratorIPS4_EEEEEC2B8ne180100ES9_, symObjAddr: 0xCB74, symBinAddr: 0x10000E274, symSize: 0x30 }
  - { offset: 0x4683D, size: 0x8, addend: 0x0, symName: __ZNSt3__129_AllocatorDestroyRangeReverseINS_9allocatorIN7rocksdb22ColumnFamilyDescriptorEEENS_16reverse_iteratorIPS3_EEEC2B8ne180100ERS4_RS7_SA_, symObjAddr: 0xCBA4, symBinAddr: 0x10000E2A4, symSize: 0x38 }
  - { offset: 0x4689A, size: 0x8, addend: 0x0, symName: __ZNSt3__119__to_address_helperINS_16reverse_iteratorIPN7rocksdb22ColumnFamilyDescriptorEEEvE6__callB8ne180100ERKS5_, symObjAddr: 0xCBDC, symBinAddr: 0x10000E2DC, symSize: 0x38 }
  - { offset: 0x468BD, size: 0x8, addend: 0x0, symName: __ZNKSt3__116reverse_iteratorIPN7rocksdb22ColumnFamilyDescriptorEEptB8ne180100Ev, symObjAddr: 0xCC14, symBinAddr: 0x10000E314, symSize: 0x24 }
  - { offset: 0x468E3, size: 0x8, addend: 0x0, symName: __ZNSt3__128__exception_guard_exceptionsINS_29_AllocatorDestroyRangeReverseINS_9allocatorIN7rocksdb22ColumnFamilyDescriptorEEENS_16reverse_iteratorIPS4_EEEEED2B8ne180100Ev, symObjAddr: 0xCC38, symBinAddr: 0x10000E338, symSize: 0x50 }
  - { offset: 0x4690D, size: 0x8, addend: 0x0, symName: __ZNKSt3__129_AllocatorDestroyRangeReverseINS_9allocatorIN7rocksdb22ColumnFamilyDescriptorEEENS_16reverse_iteratorIPS3_EEEclB8ne180100Ev, symObjAddr: 0xCC88, symBinAddr: 0x10000E388, symSize: 0xB0 }
  - { offset: 0x46934, size: 0x8, addend: 0x0, symName: __ZNSt3__116reverse_iteratorINS0_IPN7rocksdb22ColumnFamilyDescriptorEEEEC1B8ne180100ES4_, symObjAddr: 0xCDA8, symBinAddr: 0x10000E4A8, symSize: 0x3C }
  - { offset: 0x4696C, size: 0x8, addend: 0x0, symName: __ZNSt3__116reverse_iteratorINS0_IPN7rocksdb22ColumnFamilyDescriptorEEEEppB8ne180100Ev, symObjAddr: 0xCE64, symBinAddr: 0x10000E564, symSize: 0x30 }
  - { offset: 0x46992, size: 0x8, addend: 0x0, symName: __ZNKSt3__116reverse_iteratorINS0_IPN7rocksdb22ColumnFamilyDescriptorEEEE4baseB8ne180100Ev, symObjAddr: 0xCE94, symBinAddr: 0x10000E594, symSize: 0x24 }
  - { offset: 0x469BE, size: 0x8, addend: 0x0, symName: __ZNSt3__119__to_address_helperINS_16reverse_iteratorINS1_IPN7rocksdb22ColumnFamilyDescriptorEEEEEvE6__callB8ne180100ERKS6_, symObjAddr: 0xCEB8, symBinAddr: 0x10000E5B8, symSize: 0x38 }
  - { offset: 0x469E1, size: 0x8, addend: 0x0, symName: __ZNKSt3__116reverse_iteratorINS0_IPN7rocksdb22ColumnFamilyDescriptorEEEEptB8ne180100Ev, symObjAddr: 0xCEF0, symBinAddr: 0x10000E5F0, symSize: 0x24 }
  - { offset: 0x46A07, size: 0x8, addend: 0x0, symName: __ZNKSt3__116reverse_iteratorINS0_IPN7rocksdb22ColumnFamilyDescriptorEEEEdeB8ne180100Ev, symObjAddr: 0xCF14, symBinAddr: 0x10000E614, symSize: 0x34 }
  - { offset: 0x46A3B, size: 0x8, addend: 0x0, symName: __ZNSt3__116reverse_iteratorIPN7rocksdb22ColumnFamilyDescriptorEEmmB8ne180100Ev, symObjAddr: 0xCF48, symBinAddr: 0x10000E648, symSize: 0x20 }
  - { offset: 0x46A61, size: 0x8, addend: 0x0, symName: __ZNSt3__116reverse_iteratorINS0_IPN7rocksdb22ColumnFamilyDescriptorEEEEC2B8ne180100ES4_, symObjAddr: 0xCF68, symBinAddr: 0x10000E668, symSize: 0x2C }
  - { offset: 0x46A99, size: 0x8, addend: 0x0, symName: __ZNSt3__116reverse_iteratorIPN7rocksdb22ColumnFamilyDescriptorEEC2B8ne180100ES3_, symObjAddr: 0xCF94, symBinAddr: 0x10000E694, symSize: 0x28 }
  - { offset: 0x46AD1, size: 0x8, addend: 0x0, symName: __ZNSt3__114__split_bufferIN7rocksdb22ColumnFamilyDescriptorERNS_9allocatorIS2_EEED2Ev, symObjAddr: 0xCFBC, symBinAddr: 0x10000E6BC, symSize: 0x84 }
  - { offset: 0x46AFD, size: 0x8, addend: 0x0, symName: __ZNSt3__114__split_bufferIN7rocksdb22ColumnFamilyDescriptorERNS_9allocatorIS2_EEE5clearB8ne180100Ev, symObjAddr: 0xD040, symBinAddr: 0x10000E740, symSize: 0x28 }
  - { offset: 0x46B23, size: 0x8, addend: 0x0, symName: __ZNKSt3__114__split_bufferIN7rocksdb22ColumnFamilyDescriptorERNS_9allocatorIS2_EEE8capacityB8ne180100Ev, symObjAddr: 0xD068, symBinAddr: 0x10000E768, symSize: 0x40 }
  - { offset: 0x46B49, size: 0x8, addend: 0x0, symName: __ZNSt3__114__split_bufferIN7rocksdb22ColumnFamilyDescriptorERNS_9allocatorIS2_EEE17__destruct_at_endB8ne180100EPS2_, symObjAddr: 0xD0A8, symBinAddr: 0x10000E7A8, symSize: 0x2C }
  - { offset: 0x46B7D, size: 0x8, addend: 0x0, symName: __ZNSt3__114__split_bufferIN7rocksdb22ColumnFamilyDescriptorERNS_9allocatorIS2_EEE17__destruct_at_endB8ne180100EPS2_NS_17integral_constantIbLb0EEE, symObjAddr: 0xD0D4, symBinAddr: 0x10000E7D4, symSize: 0x7C }
  - { offset: 0x46BBE, size: 0x8, addend: 0x0, symName: __ZNKSt3__114__split_bufferIN7rocksdb22ColumnFamilyDescriptorERNS_9allocatorIS2_EEE9__end_capB8ne180100Ev, symObjAddr: 0xD150, symBinAddr: 0x10000E850, symSize: 0x28 }
  - { offset: 0x46BE4, size: 0x8, addend: 0x0, symName: __ZNKSt3__117__compressed_pairIPN7rocksdb22ColumnFamilyDescriptorERNS_9allocatorIS2_EEE5firstB8ne180100Ev, symObjAddr: 0xD178, symBinAddr: 0x10000E878, symSize: 0x24 }
  - { offset: 0x46C0A, size: 0x8, addend: 0x0, symName: __ZNSt3__16vectorIPN7rocksdb18ColumnFamilyHandleENS_9allocatorIS3_EEEC2B8ne180100Ev, symObjAddr: 0xD19C, symBinAddr: 0x10000E89C, symSize: 0x4C }
  - { offset: 0x46C34, size: 0x8, addend: 0x0, symName: __ZNSt3__117__compressed_pairIPPN7rocksdb18ColumnFamilyHandleENS_9allocatorIS3_EEEC1B8ne180100IDnNS_18__default_init_tagEEEOT_OT0_, symObjAddr: 0xD1E8, symBinAddr: 0x10000E8E8, symSize: 0x3C }
  - { offset: 0x46C8C, size: 0x8, addend: 0x0, symName: __ZNSt3__117__compressed_pairIPPN7rocksdb18ColumnFamilyHandleENS_9allocatorIS3_EEEC2B8ne180100IDnNS_18__default_init_tagEEEOT_OT0_, symObjAddr: 0xD224, symBinAddr: 0x10000E924, symSize: 0x40 }
  - { offset: 0x46CE4, size: 0x8, addend: 0x0, symName: __ZNSt3__122__compressed_pair_elemIPPN7rocksdb18ColumnFamilyHandleELi0ELb0EEC2B8ne180100IDnvEEOT_, symObjAddr: 0xD264, symBinAddr: 0x10000E964, symSize: 0x1C }
  - { offset: 0x46D26, size: 0x8, addend: 0x0, symName: __ZNSt3__122__compressed_pair_elemINS_9allocatorIPN7rocksdb18ColumnFamilyHandleEEELi1ELb1EEC2B8ne180100ENS_18__default_init_tagE, symObjAddr: 0xD280, symBinAddr: 0x10000E980, symSize: 0x2C }
  - { offset: 0x46D5B, size: 0x8, addend: 0x0, symName: __ZNSt3__19allocatorIPN7rocksdb18ColumnFamilyHandleEEC2B8ne180100Ev, symObjAddr: 0xD2AC, symBinAddr: 0x10000E9AC, symSize: 0x2C }
  - { offset: 0x46D85, size: 0x8, addend: 0x0, symName: __ZNSt3__116__non_trivial_ifILb1ENS_9allocatorIPN7rocksdb18ColumnFamilyHandleEEEEC2B8ne180100Ev, symObjAddr: 0xD2D8, symBinAddr: 0x10000E9D8, symSize: 0x14 }
...
